TN:
SF:/usr/include/c++/11/bits/predefined_ops.h
DA:174,18
DA:187,2
end_of_record
SF:/usr/include/c++/11/bits/stl_iterator.h
DA:1028,84
DA:1054,4
DA:1055,32
DA:1068,2
DA:1091,2
DA:1101,18
DA:1271,54
end_of_record
SF:/usr/include/c++/11/bits/unordered_set.h
FN:421,_ZNSt13unordered_setIiSt4hashIiESt8equal_toIiESaIiEE6insertERKi
FNDA:4,_ZNSt13unordered_setIiSt4hashIiESt8equal_toIiESaIiEE6insertERKi
DA:97,2
DA:421,4
DA:422,4
DA:651,4
end_of_record
SF:/usr/include/c++/11/bits/stl_algobase.h
DA:259,34
DA:260,17
end_of_record
SF:/usr/include/c++/11/bits/vector.tcc
FN:109,_ZNSt6vectorISt4pairIiiESaIS1_EE12emplace_backIJRiRKiEEERS1_DpOT_
FNDA:12,_ZNSt6vectorISt4pairIiiESaIS1_EE12emplace_backIJRiRKiEEERS1_DpOT_
FN:109,_ZNSt6vectorISt4pairIiiESaIS1_EE12emplace_backIJiRKiEEERS1_DpOT_
FNDA:6,_ZNSt6vectorISt4pairIiiESaIS1_EE12emplace_backIJiRKiEEERS1_DpOT_
FN:109,_ZNSt6vectorISt4pairIiiESaIS1_EE12emplace_backIJRKiS6_EEERS1_DpOT_
FNDA:8,_ZNSt6vectorISt4pairIiiESaIS1_EE12emplace_backIJRKiS6_EEERS1_DpOT_
FN:426,_ZNSt6vectorISt4pairIiiESaIS1_EE17_M_realloc_insertIJRiRKiEEEvN9__gnu_cxx17__normal_iteratorIPS1_S3_EEDpOT_
FNDA:2,_ZNSt6vectorISt4pairIiiESaIS1_EE17_M_realloc_insertIJRiRKiEEEvN9__gnu_cxx17__normal_iteratorIPS1_S3_EEDpOT_
FN:426,_ZNSt6vectorISt4pairIiiESaIS1_EE17_M_realloc_insertIJiRKiEEEvN9__gnu_cxx17__normal_iteratorIPS1_S3_EEDpOT_
FNDA:6,_ZNSt6vectorISt4pairIiiESaIS1_EE17_M_realloc_insertIJiRKiEEEvN9__gnu_cxx17__normal_iteratorIPS1_S3_EEDpOT_
FN:426,_ZNSt6vectorISt4pairIiiESaIS1_EE17_M_realloc_insertIJRKiS6_EEEvN9__gnu_cxx17__normal_iteratorIPS1_S3_EEDpOT_
FNDA:8,_ZNSt6vectorISt4pairIiiESaIS1_EE17_M_realloc_insertIJRKiS6_EEEvN9__gnu_cxx17__normal_iteratorIPS1_S3_EEDpOT_
DA:109,12
DA:112,12
DA:117,10
DA:121,2
DA:123,12
DA:109,6
DA:112,6
DA:117,0
DA:121,6
DA:123,6
DA:109,8
DA:112,8
DA:117,0
DA:121,8
DA:123,8
DA:426,2
DA:436,2
DA:437,2
DA:438,2
DA:449,2
DA:450,2
DA:464,2
DA:501,2
DA:502,2
DA:503,2
DA:504,2
DA:505,2
DA:426,6
DA:436,6
DA:437,6
DA:438,6
DA:449,6
DA:450,6
DA:464,6
DA:501,6
DA:502,6
DA:503,6
DA:504,6
DA:505,6
DA:426,8
DA:436,8
DA:437,8
DA:438,8
DA:449,8
DA:450,8
DA:464,8
DA:501,8
DA:502,8
DA:503,8
DA:504,8
DA:505,8
end_of_record
SF:/usr/include/c++/11/utility
DA:189,48
DA:213,18
end_of_record
SF:/usr/include/c++/11/bits/stl_heap.h
FN:134,_ZSt11__push_heapIN9__gnu_cxx17__normal_iteratorIPSt4pairIiiESt6vectorIS3_SaIS3_EEEElS3_NS0_5__ops14_Iter_comp_valISt7greaterIS3_EEEEvT_T0_SF_T1_RT2_
FNDA:20,_ZSt11__push_heapIN9__gnu_cxx17__normal_iteratorIPSt4pairIiiESt6vectorIS3_SaIS3_EEEElS3_NS0_5__ops14_Iter_comp_valISt7greaterIS3_EEEEvT_T0_SF_T1_RT2_
FN:197,_ZSt9push_heapIN9__gnu_cxx17__normal_iteratorIPSt4pairIiiESt6vectorIS3_SaIS3_EEEESt7greaterIS3_EEvT_SB_T0_
FNDA:18,_ZSt9push_heapIN9__gnu_cxx17__normal_iteratorIPSt4pairIiiESt6vectorIS3_SaIS3_EEEESt7greaterIS3_EEvT_SB_T0_
FN:223,_ZSt13__adjust_heapIN9__gnu_cxx17__normal_iteratorIPSt4pairIiiESt6vectorIS3_SaIS3_EEEElS3_NS0_5__ops15_Iter_comp_iterISt7greaterIS3_EEEEvT_T0_SF_T1_T2_
FNDA:2,_ZSt13__adjust_heapIN9__gnu_cxx17__normal_iteratorIPSt4pairIiiESt6vectorIS3_SaIS3_EEEElS3_NS0_5__ops15_Iter_comp_iterISt7greaterIS3_EEEEvT_T0_SF_T1_T2_
FN:253,_ZSt10__pop_heapIN9__gnu_cxx17__normal_iteratorIPSt4pairIiiESt6vectorIS3_SaIS3_EEEENS0_5__ops15_Iter_comp_iterISt7greaterIS3_EEEEvT_SE_SE_RT0_
FNDA:2,_ZSt10__pop_heapIN9__gnu_cxx17__normal_iteratorIPSt4pairIiiESt6vectorIS3_SaIS3_EEEENS0_5__ops15_Iter_comp_iterISt7greaterIS3_EEEEvT_SE_SE_RT0_
FN:316,_ZSt8pop_heapIN9__gnu_cxx17__normal_iteratorIPSt4pairIiiESt6vectorIS3_SaIS3_EEEESt7greaterIS3_EEvT_SB_T0_
FNDA:18,_ZSt8pop_heapIN9__gnu_cxx17__normal_iteratorIPSt4pairIiiESt6vectorIS3_SaIS3_EEEESt7greaterIS3_EEvT_SB_T0_
DA:134,20
DA:138,20
DA:139,20
DA:143,0
DA:146,20
DA:197,18
DA:214,18
DA:215,18
DA:217,18
DA:223,2
DA:228,2
DA:230,0
DA:231,0
DA:237,2
DA:239,0
DA:240,0
DA:246,2
DA:248,2
DA:253,2
DA:261,2
DA:263,2
DA:266,2
DA:316,18
DA:327,18
DA:332,2
DA:334,18
end_of_record
SF:/home/aharonba123/Desktop/H.W/Semester_B/Operating_Systems/Final_project/5_LF/Tree.cpp
FN:9,_ZN4TreeC2ERKSt6vectorISt5tupleIJiiiiEESaIS2_EE
FNDA:2,_ZN4TreeC2ERKSt6vectorISt5tupleIJiiiiEESaIS2_EE
FN:15,_ZN4Tree30calculateAllPairsShortestPathsEv
FNDA:2,_ZN4Tree30calculateAllPairsShortestPathsEv
FN:67,_ZNK4Tree20calculateTotalWeightEv
FNDA:2,_ZNK4Tree20calculateTotalWeightEv
FN:85,_ZNK4Tree24calculateLongestDistanceEv
FNDA:2,_ZNK4Tree24calculateLongestDistanceEv
FN:102,_ZNK4Tree24calculateAverageDistanceEv
FNDA:2,_ZNK4Tree24calculateAverageDistanceEv
FN:121,_ZNK4Tree25calculateShortestDistanceEii
FNDA:0,_ZNK4Tree25calculateShortestDistanceEii
FN:136,_ZNK4Tree11getMSTEdgesEv
FNDA:0,_ZNK4Tree11getMSTEdgesEv
DA:9,2
DA:11,2
DA:12,2
DA:15,2
DA:19,6
DA:21,4
DA:22,4
DA:26,8
DA:30,24
DA:31,18
DA:32,6
DA:37,6
DA:40,24
DA:42,18
DA:43,18
DA:46,18
DA:47,0
DA:50,42
DA:52,24
DA:53,24
DA:55,12
DA:56,12
DA:64,2
DA:67,2
DA:72,6
DA:74,4
DA:75,4
DA:77,4
DA:78,4
DA:81,2
DA:85,2
DA:87,2
DA:88,8
DA:90,24
DA:92,18
DA:94,18
DA:98,2
DA:102,2
DA:106,8
DA:108,24
DA:110,18
DA:112,12
DA:113,12
DA:117,2
DA:121,0
DA:124,0
DA:127,0
DA:129,0
DA:136,0
DA:138,0
end_of_record
SF:/usr/include/c++/11/bits/alloc_traits.h
DA:464,88
DA:496,16
end_of_record
SF:/usr/include/c++/11/bits/stl_function.h
DA:370,80
end_of_record
SF:/usr/include/c++/11/bits/unordered_map.h
DA:102,8
DA:272,6
DA:880,0
DA:980,110
end_of_record
SF:/usr/include/c++/11/bits/stl_queue.h
FN:656,_ZNSt14priority_queueISt4pairIiiESt6vectorIS1_SaIS1_EESt7greaterIS1_EE7emplaceIJRiRKiEEEvDpOT_
FNDA:12,_ZNSt14priority_queueISt4pairIiiESt6vectorIS1_SaIS1_EESt7greaterIS1_EE7emplaceIJRiRKiEEEvDpOT_
FN:656,_ZNSt14priority_queueISt4pairIiiESt6vectorIS1_SaIS1_EESt7greaterIS1_EE7emplaceIJiRKiEEEvDpOT_
FNDA:6,_ZNSt14priority_queueISt4pairIiiESt6vectorIS1_SaIS1_EESt7greaterIS1_EE7emplaceIJiRKiEEEvDpOT_
FN:675,_ZNSt14priority_queueISt4pairIiiESt6vectorIS1_SaIS1_EESt7greaterIS1_EE3popEv
FNDA:18,_ZNSt14priority_queueISt4pairIiiESt6vectorIS1_SaIS1_EESt7greaterIS1_EE3popEv
DA:456,6
DA:514,6
DA:656,12
DA:658,12
DA:659,12
DA:660,12
DA:656,6
DA:658,6
DA:659,6
DA:660,6
DA:675,18
DA:678,18
DA:680,18
end_of_record
SF:/usr/include/c++/11/bits/hashtable.h
FN:308,_ZNSt10_HashtableIiSt4pairIKiSt6vectorIS0_IiiESaIS3_EEESaIS6_ENSt8__detail10_Select1stESt8equal_toIiESt4hashIiENS8_18_Mod_range_hashingENS8_20_Default_ranged_hashENS8_20_Prime_rehash_policyENS8_17_Hashtable_traitsILb0ELb0ELb1EEEE12_Scoped_nodeD2Ev
FNDA:6,_ZNSt10_HashtableIiSt4pairIKiSt6vectorIS0_IiiESaIS3_EEESaIS6_ENSt8__detail10_Select1stESt8equal_toIiESt4hashIiENS8_18_Mod_range_hashingENS8_20_Default_ranged_hashENS8_20_Prime_rehash_policyENS8_17_Hashtable_traitsILb0ELb0ELb1EEEE12_Scoped_nodeD2Ev
FN:308,_ZNSt10_HashtableIiSt4pairIKiSt13unordered_mapIiiSt4hashIiESt8equal_toIiESaIS0_IS1_iEEEESaISA_ENSt8__detail10_Select1stES6_S4_NSC_18_Mod_range_hashingENSC_20_Default_ranged_hashENSC_20_Prime_rehash_policyENSC_17_Hashtable_traitsILb0ELb0ELb1EEEE12_Scoped_nodeD2Ev
FNDA:6,_ZNSt10_HashtableIiSt4pairIKiSt13unordered_mapIiiSt4hashIiESt8equal_toIiESaIS0_IS1_iEEEESaISA_ENSt8__detail10_Select1stES6_S4_NSC_18_Mod_range_hashingENSC_20_Default_ranged_hashENSC_20_Prime_rehash_policyENSC_17_Hashtable_traitsILb0ELb0ELb1EEEE12_Scoped_nodeD2Ev
FN:308,_ZNSt10_HashtableIiiSaIiENSt8__detail9_IdentityESt8equal_toIiESt4hashIiENS1_18_Mod_range_hashingENS1_20_Default_ranged_hashENS1_20_Prime_rehash_policyENS1_17_Hashtable_traitsILb0ELb1ELb1EEEE12_Scoped_nodeD2Ev
FNDA:4,_ZNSt10_HashtableIiiSaIiENSt8__detail9_IdentityESt8equal_toIiESt4hashIiENS1_18_Mod_range_hashingENS1_20_Default_ranged_hashENS1_20_Prime_rehash_policyENS1_17_Hashtable_traitsILb0ELb1ELb1EEEE12_Scoped_nodeD2Ev
FN:308,_ZNSt10_HashtableIiSt4pairIKiiESaIS2_ENSt8__detail10_Select1stESt8equal_toIiESt4hashIiENS4_18_Mod_range_hashingENS4_20_Default_ranged_hashENS4_20_Prime_rehash_policyENS4_17_Hashtable_traitsILb0ELb0ELb1EEEE12_Scoped_nodeD2Ev
FNDA:18,_ZNSt10_HashtableIiSt4pairIKiiESaIS2_ENSt8__detail10_Select1stESt8equal_toIiESt4hashIiENS4_18_Mod_range_hashingENS4_20_Default_ranged_hashENS4_20_Prime_rehash_policyENS4_17_Hashtable_traitsILb0ELb0ELb1EEEE12_Scoped_nodeD2Ev
FN:407,_ZNSt10_HashtableIiSt4pairIKiiESaIS2_ENSt8__detail10_Select1stESt8equal_toIiESt4hashIiENS4_18_Mod_range_hashingENS4_20_Default_ranged_hashENS4_20_Prime_rehash_policyENS4_17_Hashtable_traitsILb0ELb0ELb1EEEE16_M_update_bbeginEv
FNDA:6,_ZNSt10_HashtableIiSt4pairIKiiESaIS2_ENSt8__detail10_Select1stESt8equal_toIiESt4hashIiENS4_18_Mod_range_hashingENS4_20_Default_ranged_hashENS4_20_Prime_rehash_policyENS4_17_Hashtable_traitsILb0ELb0ELb1EEEE16_M_update_bbeginEv
FN:453,_ZNSt10_HashtableIiSt4pairIKiiESaIS2_ENSt8__detail10_Select1stESt8equal_toIiESt4hashIiENS4_18_Mod_range_hashingENS4_20_Default_ranged_hashENS4_20_Prime_rehash_policyENS4_17_Hashtable_traitsILb0ELb0ELb1EEEE21_M_deallocate_bucketsEv
FNDA:12,_ZNSt10_HashtableIiSt4pairIKiiESaIS2_ENSt8__detail10_Select1stESt8equal_toIiESt4hashIiENS4_18_Mod_range_hashingENS4_20_Default_ranged_hashENS4_20_Prime_rehash_policyENS4_17_Hashtable_traitsILb0ELb0ELb1EEEE21_M_deallocate_bucketsEv
FN:453,_ZNSt10_HashtableIiSt4pairIKiSt6vectorIS0_IiiESaIS3_EEESaIS6_ENSt8__detail10_Select1stESt8equal_toIiESt4hashIiENS8_18_Mod_range_hashingENS8_20_Default_ranged_hashENS8_20_Prime_rehash_policyENS8_17_Hashtable_traitsILb0ELb0ELb1EEEE21_M_deallocate_bucketsEv
FNDA:4,_ZNSt10_HashtableIiSt4pairIKiSt6vectorIS0_IiiESaIS3_EEESaIS6_ENSt8__detail10_Select1stESt8equal_toIiESt4hashIiENS8_18_Mod_range_hashingENS8_20_Default_ranged_hashENS8_20_Prime_rehash_policyENS8_17_Hashtable_traitsILb0ELb0ELb1EEEE21_M_deallocate_bucketsEv
FN:453,_ZNSt10_HashtableIiSt4pairIKiSt13unordered_mapIiiSt4hashIiESt8equal_toIiESaIS0_IS1_iEEEESaISA_ENSt8__detail10_Select1stES6_S4_NSC_18_Mod_range_hashingENSC_20_Default_ranged_hashENSC_20_Prime_rehash_policyENSC_17_Hashtable_traitsILb0ELb0ELb1EEEE21_M_deallocate_bucketsEv
FNDA:2,_ZNSt10_HashtableIiSt4pairIKiSt13unordered_mapIiiSt4hashIiESt8equal_toIiESaIS0_IS1_iEEEESaISA_ENSt8__detail10_Select1stES6_S4_NSC_18_Mod_range_hashingENSC_20_Default_ranged_hashENSC_20_Prime_rehash_policyENSC_17_Hashtable_traitsILb0ELb0ELb1EEEE21_M_deallocate_bucketsEv
FN:453,_ZNSt10_HashtableIiiSaIiENSt8__detail9_IdentityESt8equal_toIiESt4hashIiENS1_18_Mod_range_hashingENS1_20_Default_ranged_hashENS1_20_Prime_rehash_policyENS1_17_Hashtable_traitsILb0ELb1ELb1EEEE21_M_deallocate_bucketsEv
FNDA:4,_ZNSt10_HashtableIiiSaIiENSt8__detail9_IdentityESt8equal_toIiESt4hashIiENS1_18_Mod_range_hashingENS1_20_Default_ranged_hashENS1_20_Prime_rehash_policyENS1_17_Hashtable_traitsILb0ELb1ELb1EEEE21_M_deallocate_bucketsEv
FN:1238,_ZNSt10_HashtableIiSt4pairIKiiESaIS2_ENSt8__detail10_Select1stESt8equal_toIiESt4hashIiENS4_18_Mod_range_hashingENS4_20_Default_ranged_hashENS4_20_Prime_rehash_policyENS4_17_Hashtable_traitsILb0ELb0ELb1EEEE18_M_assign_elementsIRKSF_EEvOT_
FNDA:6,_ZNSt10_HashtableIiSt4pairIKiiESaIS2_ENSt8__detail10_Select1stESt8equal_toIiESt4hashIiENS4_18_Mod_range_hashingENS4_20_Default_ranged_hashENS4_20_Prime_rehash_policyENS4_17_Hashtable_traitsILb0ELb0ELb1EEEE18_M_assign_elementsIRKSF_EEvOT_
FN:1289,_ZNSt10_HashtableIiSt4pairIKiiESaIS2_ENSt8__detail10_Select1stESt8equal_toIiESt4hashIiENS4_18_Mod_range_hashingENS4_20_Default_ranged_hashENS4_20_Prime_rehash_policyENS4_17_Hashtable_traitsILb0ELb0ELb1EEEE9_M_assignIRKSF_NS4_17_ReuseOrAllocNodeISaINS4_10_Hash_nodeIS2_Lb0EEEEEEEEvOT_RKT0_
FNDA:6,_ZNSt10_HashtableIiSt4pairIKiiESaIS2_ENSt8__detail10_Select1stESt8equal_toIiESt4hashIiENS4_18_Mod_range_hashingENS4_20_Default_ranged_hashENS4_20_Prime_rehash_policyENS4_17_Hashtable_traitsILb0ELb0ELb1EEEE9_M_assignIRKSF_NS4_17_ReuseOrAllocNodeISaINS4_10_Hash_nodeIS2_Lb0EEEEEEEEvOT_RKT0_
FN:1588,_ZNSt10_HashtableIiiSaIiENSt8__detail9_IdentityESt8equal_toIiESt4hashIiENS1_18_Mod_range_hashingENS1_20_Default_ranged_hashENS1_20_Prime_rehash_policyENS1_17_Hashtable_traitsILb0ELb1ELb1EEEE4findERKi
FNDA:4,_ZNSt10_HashtableIiiSaIiENSt8__detail9_IdentityESt8equal_toIiESt4hashIiENS1_18_Mod_range_hashingENS1_20_Default_ranged_hashENS1_20_Prime_rehash_policyENS1_17_Hashtable_traitsILb0ELb1ELb1EEEE4findERKi
FN:1603,_ZNKSt10_HashtableIiSt4pairIKiiESaIS2_ENSt8__detail10_Select1stESt8equal_toIiESt4hashIiENS4_18_Mod_range_hashingENS4_20_Default_ranged_hashENS4_20_Prime_rehash_policyENS4_17_Hashtable_traitsILb0ELb0ELb1EEEE4findERS1_
FNDA:0,_ZNKSt10_HashtableIiSt4pairIKiiESaIS2_ENSt8__detail10_Select1stESt8equal_toIiESt4hashIiENS4_18_Mod_range_hashingENS4_20_Default_ranged_hashENS4_20_Prime_rehash_policyENS4_17_Hashtable_traitsILb0ELb0ELb1EEEE4findERS1_
FN:1603,_ZNKSt10_HashtableIiSt4pairIKiSt13unordered_mapIiiSt4hashIiESt8equal_toIiESaIS0_IS1_iEEEESaISA_ENSt8__detail10_Select1stES6_S4_NSC_18_Mod_range_hashingENSC_20_Default_ranged_hashENSC_20_Prime_rehash_policyENSC_17_Hashtable_traitsILb0ELb0ELb1EEEE4findERS1_
FNDA:0,_ZNKSt10_HashtableIiSt4pairIKiSt13unordered_mapIiiSt4hashIiESt8equal_toIiESaIS0_IS1_iEEEESaISA_ENSt8__detail10_Select1stES6_S4_NSC_18_Mod_range_hashingENSC_20_Default_ranged_hashENSC_20_Prime_rehash_policyENSC_17_Hashtable_traitsILb0ELb0ELb1EEEE4findERS1_
FN:1827,_ZNKSt10_HashtableIiiSaIiENSt8__detail9_IdentityESt8equal_toIiESt4hashIiENS1_18_Mod_range_hashingENS1_20_Default_ranged_hashENS1_20_Prime_rehash_policyENS1_17_Hashtable_traitsILb0ELb1ELb1EEEE19_M_find_before_nodeEmRKim
FNDA:8,_ZNKSt10_HashtableIiiSaIiENSt8__detail9_IdentityESt8equal_toIiESt4hashIiENS1_18_Mod_range_hashingENS1_20_Default_ranged_hashENS1_20_Prime_rehash_policyENS1_17_Hashtable_traitsILb0ELb1ELb1EEEE19_M_find_before_nodeEmRKim
FN:1827,_ZNKSt10_HashtableIiSt4pairIKiSt13unordered_mapIiiSt4hashIiESt8equal_toIiESaIS0_IS1_iEEEESaISA_ENSt8__detail10_Select1stES6_S4_NSC_18_Mod_range_hashingENSC_20_Default_ranged_hashENSC_20_Prime_rehash_policyENSC_17_Hashtable_traitsILb0ELb0ELb1EEEE19_M_find_before_nodeEmRS1_m
FNDA:6,_ZNKSt10_HashtableIiSt4pairIKiSt13unordered_mapIiiSt4hashIiESt8equal_toIiESaIS0_IS1_iEEEESaISA_ENSt8__detail10_Select1stES6_S4_NSC_18_Mod_range_hashingENSC_20_Default_ranged_hashENSC_20_Prime_rehash_policyENSC_17_Hashtable_traitsILb0ELb0ELb1EEEE19_M_find_before_nodeEmRS1_m
FN:1827,_ZNKSt10_HashtableIiSt4pairIKiiESaIS2_ENSt8__detail10_Select1stESt8equal_toIiESt4hashIiENS4_18_Mod_range_hashingENS4_20_Default_ranged_hashENS4_20_Prime_rehash_policyENS4_17_Hashtable_traitsILb0ELb0ELb1EEEE19_M_find_before_nodeEmRS1_m
FNDA:78,_ZNKSt10_HashtableIiSt4pairIKiiESaIS2_ENSt8__detail10_Select1stESt8equal_toIiESt4hashIiENS4_18_Mod_range_hashingENS4_20_Default_ranged_hashENS4_20_Prime_rehash_policyENS4_17_Hashtable_traitsILb0ELb0ELb1EEEE19_M_find_before_nodeEmRS1_m
FN:1827,_ZNKSt10_HashtableIiSt4pairIKiSt6vectorIS0_IiiESaIS3_EEESaIS6_ENSt8__detail10_Select1stESt8equal_toIiESt4hashIiENS8_18_Mod_range_hashingENS8_20_Default_ranged_hashENS8_20_Prime_rehash_policyENS8_17_Hashtable_traitsILb0ELb0ELb1EEEE19_M_find_before_nodeEmRS1_m
FNDA:26,_ZNKSt10_HashtableIiSt4pairIKiSt6vectorIS0_IiiESaIS3_EEESaIS6_ENSt8__detail10_Select1stESt8equal_toIiESt4hashIiENS8_18_Mod_range_hashingENS8_20_Default_ranged_hashENS8_20_Prime_rehash_policyENS8_17_Hashtable_traitsILb0ELb0ELb1EEEE19_M_find_before_nodeEmRS1_m
FN:1886,_ZNSt10_HashtableIiSt4pairIKiiESaIS2_ENSt8__detail10_Select1stESt8equal_toIiESt4hashIiENS4_18_Mod_range_hashingENS4_20_Default_ranged_hashENS4_20_Prime_rehash_policyENS4_17_Hashtable_traitsILb0ELb0ELb1EEEE22_M_insert_bucket_beginEmPNS4_10_Hash_nodeIS2_Lb0EEE
FNDA:18,_ZNSt10_HashtableIiSt4pairIKiiESaIS2_ENSt8__detail10_Select1stESt8equal_toIiESt4hashIiENS4_18_Mod_range_hashingENS4_20_Default_ranged_hashENS4_20_Prime_rehash_policyENS4_17_Hashtable_traitsILb0ELb0ELb1EEEE22_M_insert_bucket_beginEmPNS4_10_Hash_nodeIS2_Lb0EEE
FN:1886,_ZNSt10_HashtableIiSt4pairIKiSt6vectorIS0_IiiESaIS3_EEESaIS6_ENSt8__detail10_Select1stESt8equal_toIiESt4hashIiENS8_18_Mod_range_hashingENS8_20_Default_ranged_hashENS8_20_Prime_rehash_policyENS8_17_Hashtable_traitsILb0ELb0ELb1EEEE22_M_insert_bucket_beginEmPNS8_10_Hash_nodeIS6_Lb0EEE
FNDA:6,_ZNSt10_HashtableIiSt4pairIKiSt6vectorIS0_IiiESaIS3_EEESaIS6_ENSt8__detail10_Select1stESt8equal_toIiESt4hashIiENS8_18_Mod_range_hashingENS8_20_Default_ranged_hashENS8_20_Prime_rehash_policyENS8_17_Hashtable_traitsILb0ELb0ELb1EEEE22_M_insert_bucket_beginEmPNS8_10_Hash_nodeIS6_Lb0EEE
FN:1886,_ZNSt10_HashtableIiSt4pairIKiSt13unordered_mapIiiSt4hashIiESt8equal_toIiESaIS0_IS1_iEEEESaISA_ENSt8__detail10_Select1stES6_S4_NSC_18_Mod_range_hashingENSC_20_Default_ranged_hashENSC_20_Prime_rehash_policyENSC_17_Hashtable_traitsILb0ELb0ELb1EEEE22_M_insert_bucket_beginEmPNSC_10_Hash_nodeISA_Lb0EEE
FNDA:6,_ZNSt10_HashtableIiSt4pairIKiSt13unordered_mapIiiSt4hashIiESt8equal_toIiESaIS0_IS1_iEEEESaISA_ENSt8__detail10_Select1stES6_S4_NSC_18_Mod_range_hashingENSC_20_Default_ranged_hashENSC_20_Prime_rehash_policyENSC_17_Hashtable_traitsILb0ELb0ELb1EEEE22_M_insert_bucket_beginEmPNSC_10_Hash_nodeISA_Lb0EEE
FN:1886,_ZNSt10_HashtableIiiSaIiENSt8__detail9_IdentityESt8equal_toIiESt4hashIiENS1_18_Mod_range_hashingENS1_20_Default_ranged_hashENS1_20_Prime_rehash_policyENS1_17_Hashtable_traitsILb0ELb1ELb1EEEE22_M_insert_bucket_beginEmPNS1_10_Hash_nodeIiLb0EEE
FNDA:4,_ZNSt10_HashtableIiiSaIiENSt8__detail9_IdentityESt8equal_toIiESt4hashIiENS1_18_Mod_range_hashingENS1_20_Default_ranged_hashENS1_20_Prime_rehash_policyENS1_17_Hashtable_traitsILb0ELb1ELb1EEEE22_M_insert_bucket_beginEmPNS1_10_Hash_nodeIiLb0EEE
FN:2008,_ZNSt10_HashtableIiSt4pairIKiSt13unordered_mapIiiSt4hashIiESt8equal_toIiESaIS0_IS1_iEEEESaISA_ENSt8__detail10_Select1stES6_S4_NSC_18_Mod_range_hashingENSC_20_Default_ranged_hashENSC_20_Prime_rehash_policyENSC_17_Hashtable_traitsILb0ELb0ELb1EEEE21_M_insert_unique_nodeEmmPNSC_10_Hash_nodeISA_Lb0EEEm
FNDA:6,_ZNSt10_HashtableIiSt4pairIKiSt13unordered_mapIiiSt4hashIiESt8equal_toIiESaIS0_IS1_iEEEESaISA_ENSt8__detail10_Select1stES6_S4_NSC_18_Mod_range_hashingENSC_20_Default_ranged_hashENSC_20_Prime_rehash_policyENSC_17_Hashtable_traitsILb0ELb0ELb1EEEE21_M_insert_unique_nodeEmmPNSC_10_Hash_nodeISA_Lb0EEEm
FN:2008,_ZNSt10_HashtableIiSt4pairIKiiESaIS2_ENSt8__detail10_Select1stESt8equal_toIiESt4hashIiENS4_18_Mod_range_hashingENS4_20_Default_ranged_hashENS4_20_Prime_rehash_policyENS4_17_Hashtable_traitsILb0ELb0ELb1EEEE21_M_insert_unique_nodeEmmPNS4_10_Hash_nodeIS2_Lb0EEEm
FNDA:18,_ZNSt10_HashtableIiSt4pairIKiiESaIS2_ENSt8__detail10_Select1stESt8equal_toIiESt4hashIiENS4_18_Mod_range_hashingENS4_20_Default_ranged_hashENS4_20_Prime_rehash_policyENS4_17_Hashtable_traitsILb0ELb0ELb1EEEE21_M_insert_unique_nodeEmmPNS4_10_Hash_nodeIS2_Lb0EEEm
FN:2008,_ZNSt10_HashtableIiiSaIiENSt8__detail9_IdentityESt8equal_toIiESt4hashIiENS1_18_Mod_range_hashingENS1_20_Default_ranged_hashENS1_20_Prime_rehash_policyENS1_17_Hashtable_traitsILb0ELb1ELb1EEEE21_M_insert_unique_nodeEmmPNS1_10_Hash_nodeIiLb0EEEm
FNDA:4,_ZNSt10_HashtableIiiSaIiENSt8__detail9_IdentityESt8equal_toIiESt4hashIiENS1_18_Mod_range_hashingENS1_20_Default_ranged_hashENS1_20_Prime_rehash_policyENS1_17_Hashtable_traitsILb0ELb1ELb1EEEE21_M_insert_unique_nodeEmmPNS1_10_Hash_nodeIiLb0EEEm
FN:2008,_ZNSt10_HashtableIiSt4pairIKiSt6vectorIS0_IiiESaIS3_EEESaIS6_ENSt8__detail10_Select1stESt8equal_toIiESt4hashIiENS8_18_Mod_range_hashingENS8_20_Default_ranged_hashENS8_20_Prime_rehash_policyENS8_17_Hashtable_traitsILb0ELb0ELb1EEEE21_M_insert_unique_nodeEmmPNS8_10_Hash_nodeIS6_Lb0EEEm
FNDA:6,_ZNSt10_HashtableIiSt4pairIKiSt6vectorIS0_IiiESaIS3_EEESaIS6_ENSt8__detail10_Select1stESt8equal_toIiESt4hashIiENS8_18_Mod_range_hashingENS8_20_Default_ranged_hashENS8_20_Prime_rehash_policyENS8_17_Hashtable_traitsILb0ELb0ELb1EEEE21_M_insert_unique_nodeEmmPNS8_10_Hash_nodeIS6_Lb0EEEm
FN:2095,_ZNSt10_HashtableIiiSaIiENSt8__detail9_IdentityESt8equal_toIiESt4hashIiENS1_18_Mod_range_hashingENS1_20_Default_ranged_hashENS1_20_Prime_rehash_policyENS1_17_Hashtable_traitsILb0ELb1ELb1EEEE9_M_insertIRKiNS1_10_AllocNodeISaINS1_10_Hash_nodeIiLb0EEEEEEEESt4pairINS1_14_Node_iteratorIiLb1ELb0EEEbEOT_RKT0_St17integral_constantIbLb1EE
FNDA:4,_ZNSt10_HashtableIiiSaIiENSt8__detail9_IdentityESt8equal_toIiESt4hashIiENS1_18_Mod_range_hashingENS1_20_Default_ranged_hashENS1_20_Prime_rehash_policyENS1_17_Hashtable_traitsILb0ELb1ELb1EEEE9_M_insertIRKiNS1_10_AllocNodeISaINS1_10_Hash_nodeIiLb0EEEEEEEESt4pairINS1_14_Node_iteratorIiLb1ELb0EEEbEOT_RKT0_St17integral_constantIbLb1EE
FN:2316,_ZNSt10_HashtableIiiSaIiENSt8__detail9_IdentityESt8equal_toIiESt4hashIiENS1_18_Mod_range_hashingENS1_20_Default_ranged_hashENS1_20_Prime_rehash_policyENS1_17_Hashtable_traitsILb0ELb1ELb1EEEE5clearEv
FNDA:2,_ZNSt10_HashtableIiiSaIiENSt8__detail9_IdentityESt8equal_toIiESt4hashIiENS1_18_Mod_range_hashingENS1_20_Default_ranged_hashENS1_20_Prime_rehash_policyENS1_17_Hashtable_traitsILb0ELb1ELb1EEEE5clearEv
FN:2316,_ZNSt10_HashtableIiSt4pairIKiiESaIS2_ENSt8__detail10_Select1stESt8equal_toIiESt4hashIiENS4_18_Mod_range_hashingENS4_20_Default_ranged_hashENS4_20_Prime_rehash_policyENS4_17_Hashtable_traitsILb0ELb0ELb1EEEE5clearEv
FNDA:0,_ZNSt10_HashtableIiSt4pairIKiiESaIS2_ENSt8__detail10_Select1stESt8equal_toIiESt4hashIiENS4_18_Mod_range_hashingENS4_20_Default_ranged_hashENS4_20_Prime_rehash_policyENS4_17_Hashtable_traitsILb0ELb0ELb1EEEE5clearEv
FN:2316,_ZNSt10_HashtableIiSt4pairIKiSt6vectorIS0_IiiESaIS3_EEESaIS6_ENSt8__detail10_Select1stESt8equal_toIiESt4hashIiENS8_18_Mod_range_hashingENS8_20_Default_ranged_hashENS8_20_Prime_rehash_policyENS8_17_Hashtable_traitsILb0ELb0ELb1EEEE5clearEv
FNDA:2,_ZNSt10_HashtableIiSt4pairIKiSt6vectorIS0_IiiESaIS3_EEESaIS6_ENSt8__detail10_Select1stESt8equal_toIiESt4hashIiENS8_18_Mod_range_hashingENS8_20_Default_ranged_hashENS8_20_Prime_rehash_policyENS8_17_Hashtable_traitsILb0ELb0ELb1EEEE5clearEv
FN:2316,_ZNSt10_HashtableIiSt4pairIKiSt13unordered_mapIiiSt4hashIiESt8equal_toIiESaIS0_IS1_iEEEESaISA_ENSt8__detail10_Select1stES6_S4_NSC_18_Mod_range_hashingENSC_20_Default_ranged_hashENSC_20_Prime_rehash_policyENSC_17_Hashtable_traitsILb0ELb0ELb1EEEE5clearEv
FNDA:0,_ZNSt10_HashtableIiSt4pairIKiSt13unordered_mapIiiSt4hashIiESt8equal_toIiESaIS0_IS1_iEEEESaISA_ENSt8__detail10_Select1stES6_S4_NSC_18_Mod_range_hashingENSC_20_Default_ranged_hashENSC_20_Prime_rehash_policyENSC_17_Hashtable_traitsILb0ELb0ELb1EEEE5clearEv
FN:2355,_ZNSt10_HashtableIiSt4pairIKiSt6vectorIS0_IiiESaIS3_EEESaIS6_ENSt8__detail10_Select1stESt8equal_toIiESt4hashIiENS8_18_Mod_range_hashingENS8_20_Default_ranged_hashENS8_20_Prime_rehash_policyENS8_17_Hashtable_traitsILb0ELb0ELb1EEEE9_M_rehashEmRKm
FNDA:2,_ZNSt10_HashtableIiSt4pairIKiSt6vectorIS0_IiiESaIS3_EEESaIS6_ENSt8__detail10_Select1stESt8equal_toIiESt4hashIiENS8_18_Mod_range_hashingENS8_20_Default_ranged_hashENS8_20_Prime_rehash_policyENS8_17_Hashtable_traitsILb0ELb0ELb1EEEE9_M_rehashEmRKm
FN:2355,_ZNSt10_HashtableIiSt4pairIKiiESaIS2_ENSt8__detail10_Select1stESt8equal_toIiESt4hashIiENS4_18_Mod_range_hashingENS4_20_Default_ranged_hashENS4_20_Prime_rehash_policyENS4_17_Hashtable_traitsILb0ELb0ELb1EEEE9_M_rehashEmRKm
FNDA:6,_ZNSt10_HashtableIiSt4pairIKiiESaIS2_ENSt8__detail10_Select1stESt8equal_toIiESt4hashIiENS4_18_Mod_range_hashingENS4_20_Default_ranged_hashENS4_20_Prime_rehash_policyENS4_17_Hashtable_traitsILb0ELb0ELb1EEEE9_M_rehashEmRKm
FN:2355,_ZNSt10_HashtableIiSt4pairIKiSt13unordered_mapIiiSt4hashIiESt8equal_toIiESaIS0_IS1_iEEEESaISA_ENSt8__detail10_Select1stES6_S4_NSC_18_Mod_range_hashingENSC_20_Default_ranged_hashENSC_20_Prime_rehash_policyENSC_17_Hashtable_traitsILb0ELb0ELb1EEEE9_M_rehashEmRKm
FNDA:2,_ZNSt10_HashtableIiSt4pairIKiSt13unordered_mapIiiSt4hashIiESt8equal_toIiESaIS0_IS1_iEEEESaISA_ENSt8__detail10_Select1stES6_S4_NSC_18_Mod_range_hashingENSC_20_Default_ranged_hashENSC_20_Prime_rehash_policyENSC_17_Hashtable_traitsILb0ELb0ELb1EEEE9_M_rehashEmRKm
FN:2355,_ZNSt10_HashtableIiiSaIiENSt8__detail9_IdentityESt8equal_toIiESt4hashIiENS1_18_Mod_range_hashingENS1_20_Default_ranged_hashENS1_20_Prime_rehash_policyENS1_17_Hashtable_traitsILb0ELb1ELb1EEEE9_M_rehashEmRKm
FNDA:2,_ZNSt10_HashtableIiiSaIiENSt8__detail9_IdentityESt8equal_toIiESt4hashIiENS1_18_Mod_range_hashingENS1_20_Default_ranged_hashENS1_20_Prime_rehash_policyENS1_17_Hashtable_traitsILb0ELb1ELb1EEEE9_M_rehashEmRKm
FN:2378,_ZNSt10_HashtableIiiSaIiENSt8__detail9_IdentityESt8equal_toIiESt4hashIiENS1_18_Mod_range_hashingENS1_20_Default_ranged_hashENS1_20_Prime_rehash_policyENS1_17_Hashtable_traitsILb0ELb1ELb1EEEE13_M_rehash_auxEmSt17integral_constantIbLb1EE
FNDA:2,_ZNSt10_HashtableIiiSaIiENSt8__detail9_IdentityESt8equal_toIiESt4hashIiENS1_18_Mod_range_hashingENS1_20_Default_ranged_hashENS1_20_Prime_rehash_policyENS1_17_Hashtable_traitsILb0ELb1ELb1EEEE13_M_rehash_auxEmSt17integral_constantIbLb1EE
FN:2378,_ZNSt10_HashtableIiSt4pairIKiSt6vectorIS0_IiiESaIS3_EEESaIS6_ENSt8__detail10_Select1stESt8equal_toIiESt4hashIiENS8_18_Mod_range_hashingENS8_20_Default_ranged_hashENS8_20_Prime_rehash_policyENS8_17_Hashtable_traitsILb0ELb0ELb1EEEE13_M_rehash_auxEmSt17integral_constantIbLb1EE
FNDA:2,_ZNSt10_HashtableIiSt4pairIKiSt6vectorIS0_IiiESaIS3_EEESaIS6_ENSt8__detail10_Select1stESt8equal_toIiESt4hashIiENS8_18_Mod_range_hashingENS8_20_Default_ranged_hashENS8_20_Prime_rehash_policyENS8_17_Hashtable_traitsILb0ELb0ELb1EEEE13_M_rehash_auxEmSt17integral_constantIbLb1EE
FN:2378,_ZNSt10_HashtableIiSt4pairIKiiESaIS2_ENSt8__detail10_Select1stESt8equal_toIiESt4hashIiENS4_18_Mod_range_hashingENS4_20_Default_ranged_hashENS4_20_Prime_rehash_policyENS4_17_Hashtable_traitsILb0ELb0ELb1EEEE13_M_rehash_auxEmSt17integral_constantIbLb1EE
FNDA:6,_ZNSt10_HashtableIiSt4pairIKiiESaIS2_ENSt8__detail10_Select1stESt8equal_toIiESt4hashIiENS4_18_Mod_range_hashingENS4_20_Default_ranged_hashENS4_20_Prime_rehash_policyENS4_17_Hashtable_traitsILb0ELb0ELb1EEEE13_M_rehash_auxEmSt17integral_constantIbLb1EE
FN:2378,_ZNSt10_HashtableIiSt4pairIKiSt13unordered_mapIiiSt4hashIiESt8equal_toIiESaIS0_IS1_iEEEESaISA_ENSt8__detail10_Select1stES6_S4_NSC_18_Mod_range_hashingENSC_20_Default_ranged_hashENSC_20_Prime_rehash_policyENSC_17_Hashtable_traitsILb0ELb0ELb1EEEE13_M_rehash_auxEmSt17integral_constantIbLb1EE
FNDA:2,_ZNSt10_HashtableIiSt4pairIKiSt13unordered_mapIiiSt4hashIiESt8equal_toIiESaIS0_IS1_iEEEESaISA_ENSt8__detail10_Select1stES6_S4_NSC_18_Mod_range_hashingENSC_20_Default_ranged_hashENSC_20_Prime_rehash_policyENSC_17_Hashtable_traitsILb0ELb0ELb1EEEE13_M_rehash_auxEmSt17integral_constantIbLb1EE
DA:297,4
DA:298,4
DA:302,30
DA:303,30
DA:304,30
DA:308,4
DA:308,6
DA:308,18
DA:308,6
DA:407,6
DA:409,6
DA:410,6
DA:411,6
DA:416,6
DA:417,6
DA:422,28
DA:434,18
DA:436,0
DA:437,0
DA:440,18
DA:446,6
DA:453,4
DA:454,4
DA:453,12
DA:454,12
DA:453,4
DA:454,4
DA:453,2
DA:454,2
DA:463,30
DA:528,12
DA:791,28
DA:795,130
DA:810,118
DA:811,118
DA:812,80
DA:1190,6
DA:1228,6
DA:1229,6
DA:1238,6
DA:1243,6
DA:1246,6
DA:1248,6
DA:1249,6
DA:1250,6
DA:1253,0
DA:1259,6
DA:1260,6
DA:1262,6
DA:1263,6
DA:1264,6
DA:1266,6
DA:1267,0
DA:1269,0
DA:1272,0
DA:1274,0
DA:1275,0
DA:1277,0
DA:1278,0
DA:1279,0
DA:1281,6
DA:1289,6
DA:1294,6
DA:1295,0
DA:1299,6
DA:1306,6
DA:1312,18
DA:1314,12
DA:1315,12
DA:1318,12
DA:1319,12
DA:1323,0
DA:1325,0
DA:1326,0
DA:1327,0
DA:1328,0
DA:1532,10
DA:1533,10
DA:1588,4
DA:1595,4
DA:1603,0
DA:1610,0
DA:1603,0
DA:1610,0
DA:1827,8
DA:1833,8
DA:1834,8
DA:1837,0
DA:1841,0
DA:1843,0
DA:1827,6
DA:1833,6
DA:1834,6
DA:1837,0
DA:1841,0
DA:1843,0
DA:1827,78
DA:1833,78
DA:1834,78
DA:1837,60
DA:1841,60
DA:1843,0
DA:1827,26
DA:1833,26
DA:1834,26
DA:1837,20
DA:1841,20
DA:1843,0
DA:1886,4
DA:1890,4
DA:1894,0
DA:1895,0
DA:1902,4
DA:1903,4
DA:1905,4
DA:1908,2
DA:1910,4
DA:1912,4
DA:1886,6
DA:1890,6
DA:1894,0
DA:1895,0
DA:1902,6
DA:1903,6
DA:1905,6
DA:1908,4
DA:1910,6
DA:1912,6
DA:1886,18
DA:1890,18
DA:1894,0
DA:1895,0
DA:1902,18
DA:1903,18
DA:1905,18
DA:1908,12
DA:1910,18
DA:1912,18
DA:1886,6
DA:1890,6
DA:1894,0
DA:1895,0
DA:1902,6
DA:1903,6
DA:1905,6
DA:1908,4
DA:1910,6
DA:1912,6
DA:2008,4
DA:2014,4
DA:2016,4
DA:2019,4
DA:2021,2
DA:2028,4
DA:2029,4
DA:2030,4
DA:2008,6
DA:2014,6
DA:2016,6
DA:2019,6
DA:2021,2
DA:2028,6
DA:2029,6
DA:2030,6
DA:2008,18
DA:2014,18
DA:2016,18
DA:2019,18
DA:2021,6
DA:2028,18
DA:2029,18
DA:2030,18
DA:2008,6
DA:2014,6
DA:2016,6
DA:2019,6
DA:2021,2
DA:2028,6
DA:2029,6
DA:2030,6
DA:2095,4
DA:2105,0
DA:2106,0
DA:2110,4
DA:2111,4
DA:2112,4
DA:2113,4
DA:2316,2
DA:2321,2
DA:2322,2
DA:2323,2
DA:2324,2
DA:2325,2
DA:2316,0
DA:2321,0
DA:2322,0
DA:2323,0
DA:2324,0
DA:2325,0
DA:2316,2
DA:2320,2
DA:2321,2
DA:2322,2
DA:2323,2
DA:2324,2
DA:2325,2
DA:2316,0
DA:2321,0
DA:2322,0
DA:2323,0
DA:2324,0
DA:2325,0
DA:2355,2
DA:2361,2
DA:2363,0
DA:2367,0
DA:2368,0
DA:2370,2
DA:2355,2
DA:2361,2
DA:2363,0
DA:2367,0
DA:2368,0
DA:2370,2
DA:2355,6
DA:2361,6
DA:2363,0
DA:2367,0
DA:2368,0
DA:2370,6
DA:2355,2
DA:2361,2
DA:2363,0
DA:2367,0
DA:2368,0
DA:2370,2
DA:2378,2
DA:2384,2
DA:2386,2
DA:2391,0
DA:2393,0
DA:2394,0
DA:2395,0
DA:2396,0
DA:2397,0
DA:2402,0
DA:2403,0
DA:2409,2
DA:2410,2
DA:2411,2
DA:2412,2
DA:2378,2
DA:2384,2
DA:2386,2
DA:2391,0
DA:2393,0
DA:2394,0
DA:2395,0
DA:2396,0
DA:2397,0
DA:2402,0
DA:2403,0
DA:2409,2
DA:2410,2
DA:2411,2
DA:2412,2
DA:2378,6
DA:2384,6
DA:2386,6
DA:2391,0
DA:2393,0
DA:2394,0
DA:2395,0
DA:2396,0
DA:2397,0
DA:2402,0
DA:2403,0
DA:2409,6
DA:2410,6
DA:2411,6
DA:2412,6
DA:2378,2
DA:2384,2
DA:2386,2
DA:2391,0
DA:2393,0
DA:2394,0
DA:2395,0
DA:2396,0
DA:2397,0
DA:2402,0
DA:2403,0
DA:2409,2
DA:2410,2
DA:2411,2
DA:2412,2
end_of_record
SF:/usr/include/c++/11/ext/new_allocator.h
FN:103,_ZN9__gnu_cxx13new_allocatorINSt8__detail10_Hash_nodeIiLb0EEEE8allocateEmPKv
FNDA:4,_ZN9__gnu_cxx13new_allocatorINSt8__detail10_Hash_nodeIiLb0EEEE8allocateEmPKv
FN:103,_ZN9__gnu_cxx13new_allocatorIPNSt8__detail15_Hash_node_baseEE8allocateEmPKv
FNDA:18,_ZN9__gnu_cxx13new_allocatorIPNSt8__detail15_Hash_node_baseEE8allocateEmPKv
FN:103,_ZN9__gnu_cxx13new_allocatorINSt8__detail10_Hash_nodeISt4pairIKiSt13unordered_mapIiiSt4hashIiESt8equal_toIiESaIS3_IS4_iEEEELb0EEEE8allocateEmPKv
FNDA:6,_ZN9__gnu_cxx13new_allocatorINSt8__detail10_Hash_nodeISt4pairIKiSt13unordered_mapIiiSt4hashIiESt8equal_toIiESaIS3_IS4_iEEEELb0EEEE8allocateEmPKv
FN:103,_ZN9__gnu_cxx13new_allocatorINSt8__detail10_Hash_nodeISt4pairIKiiELb0EEEE8allocateEmPKv
FNDA:36,_ZN9__gnu_cxx13new_allocatorINSt8__detail10_Hash_nodeISt4pairIKiiELb0EEEE8allocateEmPKv
FN:103,_ZN9__gnu_cxx13new_allocatorINSt8__detail10_Hash_nodeISt4pairIKiSt6vectorIS3_IiiESaIS6_EEELb0EEEE8allocateEmPKv
FNDA:6,_ZN9__gnu_cxx13new_allocatorINSt8__detail10_Hash_nodeISt4pairIKiSt6vectorIS3_IiiESaIS6_EEELb0EEEE8allocateEmPKv
FN:103,_ZN9__gnu_cxx13new_allocatorISt5tupleIJiiiiEEE8allocateEmPKv
FNDA:2,_ZN9__gnu_cxx13new_allocatorISt5tupleIJiiiiEEE8allocateEmPKv
FN:103,_ZN9__gnu_cxx13new_allocatorISt4pairIiiEE8allocateEmPKv
FNDA:16,_ZN9__gnu_cxx13new_allocatorISt4pairIiiEE8allocateEmPKv
DA:103,4
DA:111,4
DA:115,0
DA:116,0
DA:117,0
DA:127,4
DA:103,18
DA:111,18
DA:115,0
DA:116,0
DA:117,0
DA:127,18
DA:103,6
DA:111,6
DA:115,0
DA:116,0
DA:117,0
DA:127,6
DA:103,36
DA:111,36
DA:115,0
DA:116,0
DA:117,0
DA:127,36
DA:103,6
DA:111,6
DA:115,0
DA:116,0
DA:117,0
DA:127,6
DA:103,2
DA:111,2
DA:115,0
DA:116,0
DA:117,0
DA:127,2
DA:103,16
DA:111,16
DA:115,0
DA:116,0
DA:117,0
DA:127,16
DA:145,36
DA:162,4
DA:168,4
end_of_record
SF:/usr/include/c++/11/bits/hashtable_policy.h
FN:118,_ZNSt8__detail17_ReuseOrAllocNodeISaINS_10_Hash_nodeISt4pairIKiiELb0EEEEED2Ev
FNDA:6,_ZNSt8__detail17_ReuseOrAllocNodeISaINS_10_Hash_nodeISt4pairIKiiELb0EEEEED2Ev
FN:123,_ZNKSt8__detail17_ReuseOrAllocNodeISaINS_10_Hash_nodeISt4pairIKiiELb0EEEEEclIRKS4_EEPS5_OT_
FNDA:18,_ZNKSt8__detail17_ReuseOrAllocNodeISaINS_10_Hash_nodeISt4pairIKiiELb0EEEEEclIRKS4_EEPS5_OT_
FN:696,_ZNSt8__detail9_Map_baseIiSt4pairIKiSt13unordered_mapIiiSt4hashIiESt8equal_toIiESaIS1_IS2_iEEEESaISB_ENS_10_Select1stES7_S5_NS_18_Mod_range_hashingENS_20_Default_ranged_hashENS_20_Prime_rehash_policyENS_17_Hashtable_traitsILb0ELb0ELb1EEELb1EEixERS2_
FNDA:6,_ZNSt8__detail9_Map_baseIiSt4pairIKiSt13unordered_mapIiiSt4hashIiESt8equal_toIiESaIS1_IS2_iEEEESaISB_ENS_10_Select1stES7_S5_NS_18_Mod_range_hashingENS_20_Default_ranged_hashENS_20_Prime_rehash_policyENS_17_Hashtable_traitsILb0ELb0ELb1EEELb1EEixERS2_
FN:696,_ZNSt8__detail9_Map_baseIiSt4pairIKiiESaIS3_ENS_10_Select1stESt8equal_toIiESt4hashIiENS_18_Mod_range_hashingENS_20_Default_ranged_hashENS_20_Prime_rehash_policyENS_17_Hashtable_traitsILb0ELb0ELb1EEELb1EEixERS2_
FNDA:78,_ZNSt8__detail9_Map_baseIiSt4pairIKiiESaIS3_ENS_10_Select1stESt8equal_toIiESt4hashIiENS_18_Mod_range_hashingENS_20_Default_ranged_hashENS_20_Prime_rehash_policyENS_17_Hashtable_traitsILb0ELb0ELb1EEELb1EEixERS2_
FN:696,_ZNSt8__detail9_Map_baseIiSt4pairIKiSt6vectorIS1_IiiESaIS4_EEESaIS7_ENS_10_Select1stESt8equal_toIiESt4hashIiENS_18_Mod_range_hashingENS_20_Default_ranged_hashENS_20_Prime_rehash_policyENS_17_Hashtable_traitsILb0ELb0ELb1EEELb1EEixERS2_
FNDA:26,_ZNSt8__detail9_Map_baseIiSt4pairIKiSt6vectorIS1_IiiESaIS4_EEESaIS7_ENS_10_Select1stESt8equal_toIiESt4hashIiENS_18_Mod_range_hashingENS_20_Default_ranged_hashENS_20_Prime_rehash_policyENS_17_Hashtable_traitsILb0ELb0ELb1EEELb1EEixERS2_
FN:1870,_ZNSt8__detail16_Hashtable_allocISaINS_10_Hash_nodeIiLb0EEEEE16_M_allocate_nodeIJRKiEEEPS2_DpOT_
FNDA:4,_ZNSt8__detail16_Hashtable_allocISaINS_10_Hash_nodeIiLb0EEEEE16_M_allocate_nodeIJRKiEEEPS2_DpOT_
FN:1870,_ZNSt8__detail16_Hashtable_allocISaINS_10_Hash_nodeISt4pairIKiiELb0EEEEE16_M_allocate_nodeIJRKS4_EEEPS5_DpOT_
FNDA:18,_ZNSt8__detail16_Hashtable_allocISaINS_10_Hash_nodeISt4pairIKiiELb0EEEEE16_M_allocate_nodeIJRKS4_EEEPS5_DpOT_
FN:1870,_ZNSt8__detail16_Hashtable_allocISaINS_10_Hash_nodeISt4pairIKiSt13unordered_mapIiiSt4hashIiESt8equal_toIiESaIS2_IS3_iEEEELb0EEEEE16_M_allocate_nodeIJRKSt21piecewise_construct_tSt5tupleIJRS3_EESK_IJEEEEEPSD_DpOT_
FNDA:6,_ZNSt8__detail16_Hashtable_allocISaINS_10_Hash_nodeISt4pairIKiSt13unordered_mapIiiSt4hashIiESt8equal_toIiESaIS2_IS3_iEEEELb0EEEEE16_M_allocate_nodeIJRKSt21piecewise_construct_tSt5tupleIJRS3_EESK_IJEEEEEPSD_DpOT_
FN:1870,_ZNSt8__detail16_Hashtable_allocISaINS_10_Hash_nodeISt4pairIKiiELb0EEEEE16_M_allocate_nodeIJRKSt21piecewise_construct_tSt5tupleIJRS3_EESC_IJEEEEEPS5_DpOT_
FNDA:18,_ZNSt8__detail16_Hashtable_allocISaINS_10_Hash_nodeISt4pairIKiiELb0EEEEE16_M_allocate_nodeIJRKSt21piecewise_construct_tSt5tupleIJRS3_EESC_IJEEEEEPS5_DpOT_
FN:1870,_ZNSt8__detail16_Hashtable_allocISaINS_10_Hash_nodeISt4pairIKiSt6vectorIS2_IiiESaIS5_EEELb0EEEEE16_M_allocate_nodeIJRKSt21piecewise_construct_tSt5tupleIJRS3_EESG_IJEEEEEPS9_DpOT_
FNDA:6,_ZNSt8__detail16_Hashtable_allocISaINS_10_Hash_nodeISt4pairIKiSt6vectorIS2_IiiESaIS5_EEELb0EEEEE16_M_allocate_nodeIJRKSt21piecewise_construct_tSt5tupleIJRS3_EESG_IJEEEEEPS9_DpOT_
FN:1892,_ZNSt8__detail16_Hashtable_allocISaINS_10_Hash_nodeISt4pairIKiSt13unordered_mapIiiSt4hashIiESt8equal_toIiESaIS2_IS3_iEEEELb0EEEEE18_M_deallocate_nodeEPSD_
FNDA:0,_ZNSt8__detail16_Hashtable_allocISaINS_10_Hash_nodeISt4pairIKiSt13unordered_mapIiiSt4hashIiESt8equal_toIiESaIS2_IS3_iEEEELb0EEEEE18_M_deallocate_nodeEPSD_
FN:1910,_ZNSt8__detail16_Hashtable_allocISaINS_10_Hash_nodeISt4pairIKiSt6vectorIS2_IiiESaIS5_EEELb0EEEEE19_M_deallocate_nodesEPS9_
FNDA:2,_ZNSt8__detail16_Hashtable_allocISaINS_10_Hash_nodeISt4pairIKiSt6vectorIS2_IiiESaIS5_EEELb0EEEEE19_M_deallocate_nodesEPS9_
FN:1922,_ZNSt8__detail16_Hashtable_allocISaINS_10_Hash_nodeIiLb0EEEEE19_M_allocate_bucketsEm
FNDA:2,_ZNSt8__detail16_Hashtable_allocISaINS_10_Hash_nodeIiLb0EEEEE19_M_allocate_bucketsEm
FN:1922,_ZNSt8__detail16_Hashtable_allocISaINS_10_Hash_nodeISt4pairIKiSt13unordered_mapIiiSt4hashIiESt8equal_toIiESaIS2_IS3_iEEEELb0EEEEE19_M_allocate_bucketsEm
FNDA:2,_ZNSt8__detail16_Hashtable_allocISaINS_10_Hash_nodeISt4pairIKiSt13unordered_mapIiiSt4hashIiESt8equal_toIiESaIS2_IS3_iEEEELb0EEEEE19_M_allocate_bucketsEm
FN:1922,_ZNSt8__detail16_Hashtable_allocISaINS_10_Hash_nodeISt4pairIKiSt6vectorIS2_IiiESaIS5_EEELb0EEEEE19_M_allocate_bucketsEm
FNDA:2,_ZNSt8__detail16_Hashtable_allocISaINS_10_Hash_nodeISt4pairIKiSt6vectorIS2_IiiESaIS5_EEELb0EEEEE19_M_allocate_bucketsEm
FN:1922,_ZNSt8__detail16_Hashtable_allocISaINS_10_Hash_nodeISt4pairIKiiELb0EEEEE19_M_allocate_bucketsEm
FNDA:12,_ZNSt8__detail16_Hashtable_allocISaINS_10_Hash_nodeISt4pairIKiiELb0EEEEE19_M_allocate_bucketsEm
DA:114,6
DA:115,6
DA:118,6
DA:119,12
DA:123,18
DA:125,18
DA:128,0
DA:129,0
DA:142,0
DA:144,18
DA:162,4
DA:163,4
DA:168,4
DA:219,64
DA:283,24
DA:347,30
DA:353,24
DA:404,48
DA:430,170
DA:447,12
DA:474,40
DA:482,0
DA:696,6
DA:704,0
DA:705,0
DA:710,6
DA:711,6
DA:714,6
DA:715,6
DA:716,6
DA:717,6
DA:696,78
DA:704,60
DA:705,60
DA:710,18
DA:711,18
DA:714,18
DA:715,18
DA:716,18
DA:717,18
DA:696,26
DA:704,20
DA:705,20
DA:710,6
DA:711,6
DA:714,6
DA:715,6
DA:716,6
DA:717,6
DA:844,4
DA:1219,158
DA:1617,80
DA:1870,4
DA:1881,4
DA:1870,18
DA:1881,18
DA:1870,6
DA:1881,6
DA:1870,18
DA:1881,18
DA:1870,6
DA:1881,6
DA:1892,0
DA:1896,10
DA:1904,10
DA:1910,2
DA:1912,20
DA:1916,0
DA:1918,2
DA:1922,2
DA:1929,2
DA:1930,2
DA:1922,2
DA:1929,2
DA:1930,2
DA:1922,2
DA:1929,2
DA:1930,2
DA:1922,12
DA:1929,12
DA:1930,12
DA:1943,10
end_of_record
SF:/usr/include/c++/11/tuple
DA:192,30
DA:193,30
DA:236,4
DA:456,30
DA:1816,30
DA:1819,30
DA:1820,24
end_of_record
SF:/usr/include/c++/11/bits/stl_pair.h
DA:266,8
DA:267,8
DA:322,18
DA:323,18
DA:353,4
DA:408,22
DA:409,2
DA:490,2
DA:491,2
end_of_record
SF:/usr/include/c++/11/bits/functional_hash.h
DA:154,158
end_of_record
SF:/usr/include/c++/11/bits/stl_uninitialized.h
DA:91,6
DA:1031,36
end_of_record
SF:/usr/include/c++/11/ext/aligned_buffer.h
DA:104,18
end_of_record
SF:/usr/include/c++/11/bits/stl_vector.h
FN:333,_ZNSt12_Vector_baseISt4pairIiiESaIS1_EED2Ev
FNDA:12,_ZNSt12_Vector_baseISt4pairIiiESaIS1_EED2Ev
FN:333,_ZNSt12_Vector_baseISt5tupleIJiiiiEESaIS1_EED2Ev
FNDA:0,_ZNSt12_Vector_baseISt5tupleIJiiiiEESaIS1_EED2Ev
FN:359,_ZNSt12_Vector_baseISt5tupleIJiiiiEESaIS1_EE17_M_create_storageEm
FNDA:2,_ZNSt12_Vector_baseISt5tupleIJiiiiEESaIS1_EE17_M_create_storageEm
FN:553,_ZNSt6vectorISt5tupleIJiiiiEESaIS1_EEC2ERKS3_
FNDA:2,_ZNSt6vectorISt5tupleIJiiiiEESaIS1_EEC2ERKS3_
FN:1756,_ZNKSt6vectorISt4pairIiiESaIS1_EE12_M_check_lenEmPKc
FNDA:16,_ZNKSt6vectorISt4pairIiiESaIS1_EE12_M_check_lenEmPKc
DA:97,14
DA:98,6
DA:305,2
DA:333,12
DA:335,12
DA:336,12
DA:337,12
DA:333,0
DA:335,0
DA:336,0
DA:337,0
DA:346,18
DA:353,28
DA:359,2
DA:361,2
DA:362,2
DA:363,2
DA:364,2
DA:553,2
DA:555,2
DA:557,2
DA:558,2
DA:561,2
DA:683,12
DA:919,2
DA:1228,18
DA:1756,16
DA:1758,16
DA:1759,0
DA:1761,16
DA:1762,16
end_of_record
TN:
SF:/usr/include/c++/11/bits/basic_string.tcc
FN:206,_ZNSt7__cxx1112basic_stringIcSt11char_traitsIcESaIcEE12_M_constructIPKcEEvT_S8_St20forward_iterator_tag
FNDA:10,_ZNSt7__cxx1112basic_stringIcSt11char_traitsIcESaIcEE12_M_constructIPKcEEvT_S8_St20forward_iterator_tag
DA:206,10
DA:211,10
DA:212,0
DA:215,10
DA:217,10
DA:219,0
DA:220,0
DA:232,10
DA:233,10
end_of_record
SF:/usr/include/c++/11/bits/char_traits.h
DA:357,12
DA:399,2
end_of_record
SF:/usr/include/c++/11/bits/locale_facets.h
FN:875,_ZNKSt5ctypeIcE5widenEc
FNDA:10,_ZNKSt5ctypeIcE5widenEc
FN:1087,_ZNKSt5ctypeIcE8do_widenEc
FNDA:0,_ZNKSt5ctypeIcE8do_widenEc
DA:875,10
DA:877,10
DA:878,10
DA:879,0
DA:880,0
DA:1087,0
DA:1088,0
end_of_record
SF:/home/aharonba123/Desktop/H.W/Semester_B/Operating_Systems/Final_project/5_LF/Client.cpp
FN:7,_ZN6ClientC2Ei
FNDA:0,_ZN6ClientC2Ei
FN:10,_ZN6ClientD2Ev
FNDA:2,_ZN6ClientD2Ev
FN:18,_ZN6Client15connectToServerEv
FNDA:2,_ZN6Client15connectToServerEv
FN:40,_ZN6Client11sendRequestERKNSt7__cxx1112basic_stringIcSt11char_traitsIcESaIcEEE
FNDA:8,_ZN6Client11sendRequestERKNSt7__cxx1112basic_stringIcSt11char_traitsIcESaIcEEE
FN:50,_ZN6Client15receiveResponseB5cxx11Ev
FNDA:2,_ZN6Client15receiveResponseB5cxx11Ev
FN:78,main
FNDA:2,main
DA:7,2
DA:8,0
DA:10,2
DA:12,2
DA:14,2
DA:16,2
DA:18,2
DA:20,2
DA:21,2
DA:23,0
DA:24,0
DA:27,2
DA:28,2
DA:29,2
DA:30,2
DA:32,2
DA:34,0
DA:35,0
DA:40,8
DA:42,8
DA:43,8
DA:45,0
DA:47,8
DA:48,8
DA:50,2
DA:52,2
DA:53,2
DA:55,2
DA:57,0
DA:58,0
DA:61,2
DA:64,4
DA:66,2
DA:67,2
DA:69,0
DA:70,0
DA:72,2
DA:78,2
DA:81,2
DA:82,2
DA:84,2
DA:85,2
DA:87,0
DA:91,2
DA:92,2
DA:98,10
DA:99,10
DA:101,10
DA:103,2
DA:107,8
DA:109,16
DA:111,2
DA:113,2
DA:115,4
DA:118,2
DA:119,2
end_of_record
SF:/usr/include/aarch64-linux-gnu/bits/byteswap.h
DA:37,2
end_of_record
SF:/usr/include/c++/11/ostream
DA:167,0
DA:171,0
end_of_record
SF:/usr/include/aarch64-linux-gnu/bits/socket2.h
DA:36,2
DA:37,2
DA:38,4
DA:39,0
DA:40,0
DA:41,0
end_of_record
SF:/usr/include/c++/11/bits/stl_iterator_base_funcs.h
DA:104,10
end_of_record
SF:/usr/include/c++/11/iostream
end_of_record
SF:/usr/include/c++/11/bits/basic_string.h
FN:533,_ZNSt7__cxx1112basic_stringIcSt11char_traitsIcESaIcEEC2IS3_EEPKcRKS3_
FNDA:2,_ZNSt7__cxx1112basic_stringIcSt11char_traitsIcESaIcEEC2IS3_EEPKcRKS3_
DA:164,4
DA:165,4
DA:167,10
DA:168,12
DA:187,0
DA:191,22
DA:195,34
DA:201,4
DA:219,0
DA:225,10
DA:406,10
DA:439,10
DA:533,2
DA:536,2
DA:539,2
DA:540,2
DA:553,2
DA:555,2
DA:568,2
DA:576,2
DA:585,2
DA:672,16
DA:921,8
DA:927,2
DA:1062,2
DA:6250,18
DA:6536,2
end_of_record
TN:
SF:/usr/include/c++/11/streambuf
end_of_record
SF:/usr/include/c++/11/tuple
DA:124,1
DA:189,2
DA:190,0
DA:192,1
DA:193,1
DA:199,12
DA:200,2
DA:233,2
DA:290,12
DA:301,8
DA:387,6
DA:397,0
DA:454,8
DA:456,8
DA:538,0
DA:1816,1
DA:1819,1
end_of_record
SF:/home/aharonba123/Desktop/H.W/Semester_B/Operating_Systems/Final_project/5_LF/MSTAlgorithmType.hpp
FN:14,_Z21stringToAlgorithmTypeRKNSt7__cxx1112basic_stringIcSt11char_traitsIcESaIcEEE
FNDA:2,_Z21stringToAlgorithmTypeRKNSt7__cxx1112basic_stringIcSt11char_traitsIcESaIcEEE
DA:14,2
DA:16,2
DA:18,1
DA:19,1
end_of_record
SF:/usr/include/c++/11/bits/stl_iterator_base_funcs.h
DA:104,16
end_of_record
SF:/usr/include/c++/11/bits/stl_algobase.h
FN:400,_ZNSt11__copy_moveILb1ELb0ESt26random_access_iterator_tagE8__copy_mIPSt5tupleIJiiiiEES5_EET0_T_S7_S6_
FNDA:0,_ZNSt11__copy_moveILb1ELb0ESt26random_access_iterator_tagE8__copy_mIPSt5tupleIJiiiiEES5_EET0_T_S7_S6_
FN:2061,_ZSt9__find_ifIN9__gnu_cxx17__normal_iteratorIPSt5tupleIJiiiiEESt6vectorIS3_SaIS3_EEEENS0_5__ops10_Iter_predIZN5Graph10removeEdgeEiiEUlRKS3_E_EEET_SG_SG_T0_St26random_access_iterator_tag
FNDA:1,_ZSt9__find_ifIN9__gnu_cxx17__normal_iteratorIPSt5tupleIJiiiiEESt6vectorIS3_SaIS3_EEEENS0_5__ops10_Iter_predIZN5Graph10removeEdgeEiiEUlRKS3_E_EEET_SG_SG_T0_St26random_access_iterator_tag
DA:259,10
DA:260,4
DA:400,0
DA:403,0
DA:406,0
DA:407,0
DA:409,0
DA:495,0
DA:2061,1
DA:2065,1
DA:2067,2
DA:2069,1
DA:2070,0
DA:2073,1
DA:2074,0
DA:2077,1
DA:2078,0
DA:2081,1
DA:2082,0
DA:2086,1
DA:2088,0
DA:2089,0
DA:2090,0
DA:2093,1
DA:2094,1
DA:2095,1
DA:2098,0
DA:2099,0
DA:2100,0
DA:2103,0
DA:2105,0
DA:2114,1
end_of_record
SF:/usr/include/c++/11/bits/basic_string.tcc
FN:206,_ZNSt7__cxx1112basic_stringIcSt11char_traitsIcESaIcEE12_M_constructIPKcEEvT_S8_St20forward_iterator_tag
FNDA:16,_ZNSt7__cxx1112basic_stringIcSt11char_traitsIcESaIcEE12_M_constructIPKcEEvT_S8_St20forward_iterator_tag
DA:206,16
DA:211,16
DA:212,0
DA:215,16
DA:217,16
DA:219,2
DA:220,2
DA:232,16
DA:233,16
end_of_record
SF:/usr/include/c++/11/bits/std_thread.h
FN:127,_ZNSt6threadC2IM6ServerFviEJPS1_RiEvEEOT_DpOT0_
FNDA:2,_ZNSt6threadC2IM6ServerFviEJPS1_RiEvEEOT_DpOT0_
FN:211,_ZNSt6thread11_State_implINS_8_InvokerISt5tupleIJM6ServerFviEPS3_iEEEEE6_M_runEv
FNDA:2,_ZNSt6thread11_State_implINS_8_InvokerISt5tupleIJM6ServerFviEPS3_iEEEEE6_M_runEv
DA:86,1
DA:127,2
DA:143,2
DA:146,2
DA:151,2
DA:152,0
DA:153,3
DA:206,2
DA:207,2
DA:211,2
end_of_record
SF:/usr/include/c++/11/bits/std_mutex.h
FN:98,_ZNSt5mutex4lockEv
FNDA:24,_ZNSt5mutex4lockEv
DA:65,1
DA:98,24
DA:100,24
DA:103,24
DA:104,0
DA:105,24
DA:118,10
DA:229,24
end_of_record
SF:/usr/include/c++/11/bits/alloc_traits.h
DA:464,115
DA:496,19
DA:520,20
DA:539,0
DA:849,0
end_of_record
SF:/home/aharonba123/Desktop/H.W/Semester_B/Operating_Systems/Final_project/5_LF/MSTFactory.hpp
FN:17,_ZN10MSTFactory12createSolverE16MSTAlgorithmType
FNDA:2,_ZN10MSTFactory12createSolverE16MSTAlgorithmType
DA:17,2
DA:19,2
DA:21,1
DA:22,1
DA:23,1
DA:24,1
DA:25,1
DA:26,1
DA:27,0
DA:28,0
end_of_record
SF:/usr/include/c++/11/bits/hashtable.h
FN:407,_ZNSt10_HashtableIiSt4pairIKiiESaIS2_ENSt8__detail10_Select1stESt8equal_toIiESt4hashIiENS4_18_Mod_range_hashingENS4_20_Default_ranged_hashENS4_20_Prime_rehash_policyENS4_17_Hashtable_traitsILb0ELb0ELb1EEEE16_M_update_bbeginEv
FNDA:18,_ZNSt10_HashtableIiSt4pairIKiiESaIS2_ENSt8__detail10_Select1stESt8equal_toIiESt4hashIiENS4_18_Mod_range_hashingENS4_20_Default_ranged_hashENS4_20_Prime_rehash_policyENS4_17_Hashtable_traitsILb0ELb0ELb1EEEE16_M_update_bbeginEv
FN:407,_ZNSt10_HashtableIiSt4pairIKiSt13unordered_mapIiiSt4hashIiESt8equal_toIiESaIS0_IS1_iEEEESaISA_ENSt8__detail10_Select1stES6_S4_NSC_18_Mod_range_hashingENSC_20_Default_ranged_hashENSC_20_Prime_rehash_policyENSC_17_Hashtable_traitsILb0ELb0ELb1EEEE16_M_update_bbeginEv
FNDA:8,_ZNSt10_HashtableIiSt4pairIKiSt13unordered_mapIiiSt4hashIiESt8equal_toIiESaIS0_IS1_iEEEESaISA_ENSt8__detail10_Select1stES6_S4_NSC_18_Mod_range_hashingENSC_20_Default_ranged_hashENSC_20_Prime_rehash_policyENSC_17_Hashtable_traitsILb0ELb0ELb1EEEE16_M_update_bbeginEv
FN:453,_ZNSt10_HashtableIiSt4pairIKiiESaIS2_ENSt8__detail10_Select1stESt8equal_toIiESt4hashIiENS4_18_Mod_range_hashingENS4_20_Default_ranged_hashENS4_20_Prime_rehash_policyENS4_17_Hashtable_traitsILb0ELb0ELb1EEEE21_M_deallocate_bucketsEv
FNDA:30,_ZNSt10_HashtableIiSt4pairIKiiESaIS2_ENSt8__detail10_Select1stESt8equal_toIiESt4hashIiENS4_18_Mod_range_hashingENS4_20_Default_ranged_hashENS4_20_Prime_rehash_policyENS4_17_Hashtable_traitsILb0ELb0ELb1EEEE21_M_deallocate_bucketsEv
FN:453,_ZNSt10_HashtableIiSt4pairIKiSt13unordered_mapIiiSt4hashIiESt8equal_toIiESaIS0_IS1_iEEEESaISA_ENSt8__detail10_Select1stES6_S4_NSC_18_Mod_range_hashingENSC_20_Default_ranged_hashENSC_20_Prime_rehash_policyENSC_17_Hashtable_traitsILb0ELb0ELb1EEEE21_M_deallocate_bucketsEv
FNDA:10,_ZNSt10_HashtableIiSt4pairIKiSt13unordered_mapIiiSt4hashIiESt8equal_toIiESaIS0_IS1_iEEEESaISA_ENSt8__detail10_Select1stES6_S4_NSC_18_Mod_range_hashingENSC_20_Default_ranged_hashENSC_20_Prime_rehash_policyENSC_17_Hashtable_traitsILb0ELb0ELb1EEEE21_M_deallocate_bucketsEv
FN:1289,_ZNSt10_HashtableIiSt4pairIKiiESaIS2_ENSt8__detail10_Select1stESt8equal_toIiESt4hashIiENS4_18_Mod_range_hashingENS4_20_Default_ranged_hashENS4_20_Prime_rehash_policyENS4_17_Hashtable_traitsILb0ELb0ELb1EEEE9_M_assignIRKSF_NS4_10_AllocNodeISaINS4_10_Hash_nodeIS2_Lb0EEEEEEEEvOT_RKT0_
FNDA:18,_ZNSt10_HashtableIiSt4pairIKiiESaIS2_ENSt8__detail10_Select1stESt8equal_toIiESt4hashIiENS4_18_Mod_range_hashingENS4_20_Default_ranged_hashENS4_20_Prime_rehash_policyENS4_17_Hashtable_traitsILb0ELb0ELb1EEEE9_M_assignIRKSF_NS4_10_AllocNodeISaINS4_10_Hash_nodeIS2_Lb0EEEEEEEEvOT_RKT0_
FN:1289,_ZNSt10_HashtableIiSt4pairIKiSt13unordered_mapIiiSt4hashIiESt8equal_toIiESaIS0_IS1_iEEEESaISA_ENSt8__detail10_Select1stES6_S4_NSC_18_Mod_range_hashingENSC_20_Default_ranged_hashENSC_20_Prime_rehash_policyENSC_17_Hashtable_traitsILb0ELb0ELb1EEEE9_M_assignIRKSJ_NSC_10_AllocNodeISaINSC_10_Hash_nodeISA_Lb0EEEEEEEEvOT_RKT0_
FNDA:6,_ZNSt10_HashtableIiSt4pairIKiSt13unordered_mapIiiSt4hashIiESt8equal_toIiESaIS0_IS1_iEEEESaISA_ENSt8__detail10_Select1stES6_S4_NSC_18_Mod_range_hashingENSC_20_Default_ranged_hashENSC_20_Prime_rehash_policyENSC_17_Hashtable_traitsILb0ELb0ELb1EEEE9_M_assignIRKSJ_NSC_10_AllocNodeISaINSC_10_Hash_nodeISA_Lb0EEEEEEEEvOT_RKT0_
FN:1406,_ZNSt10_HashtableIiSt4pairIKiiESaIS2_ENSt8__detail10_Select1stESt8equal_toIiESt4hashIiENS4_18_Mod_range_hashingENS4_20_Default_ranged_hashENS4_20_Prime_rehash_policyENS4_17_Hashtable_traitsILb0ELb0ELb1EEEEC2ERKSF_
FNDA:18,_ZNSt10_HashtableIiSt4pairIKiiESaIS2_ENSt8__detail10_Select1stESt8equal_toIiESt4hashIiENS4_18_Mod_range_hashingENS4_20_Default_ranged_hashENS4_20_Prime_rehash_policyENS4_17_Hashtable_traitsILb0ELb0ELb1EEEEC2ERKSF_
FN:1406,_ZNSt10_HashtableIiSt4pairIKiSt13unordered_mapIiiSt4hashIiESt8equal_toIiESaIS0_IS1_iEEEESaISA_ENSt8__detail10_Select1stES6_S4_NSC_18_Mod_range_hashingENSC_20_Default_ranged_hashENSC_20_Prime_rehash_policyENSC_17_Hashtable_traitsILb0ELb0ELb1EEEEC2ERKSJ_
FNDA:6,_ZNSt10_HashtableIiSt4pairIKiSt13unordered_mapIiiSt4hashIiESt8equal_toIiESaIS0_IS1_iEEEESaISA_ENSt8__detail10_Select1stES6_S4_NSC_18_Mod_range_hashingENSC_20_Default_ranged_hashENSC_20_Prime_rehash_policyENSC_17_Hashtable_traitsILb0ELb0ELb1EEEEC2ERKSJ_
FN:1428,_ZNSt10_HashtableIiSt4pairIKiSt13unordered_mapIiiSt4hashIiESt8equal_toIiESaIS0_IS1_iEEEESaISA_ENSt8__detail10_Select1stES6_S4_NSC_18_Mod_range_hashingENSC_20_Default_ranged_hashENSC_20_Prime_rehash_policyENSC_17_Hashtable_traitsILb0ELb0ELb1EEEEC2EOSJ_OSaINSC_10_Hash_nodeISA_Lb0EEEESt17integral_constantIbLb1EE
FNDA:2,_ZNSt10_HashtableIiSt4pairIKiSt13unordered_mapIiiSt4hashIiESt8equal_toIiESaIS0_IS1_iEEEESaISA_ENSt8__detail10_Select1stES6_S4_NSC_18_Mod_range_hashingENSC_20_Default_ranged_hashENSC_20_Prime_rehash_policyENSC_17_Hashtable_traitsILb0ELb0ELb1EEEEC2EOSJ_OSaINSC_10_Hash_nodeISA_Lb0EEEESt17integral_constantIbLb1EE
FN:2316,_ZNSt10_HashtableIiSt4pairIKiiESaIS2_ENSt8__detail10_Select1stESt8equal_toIiESt4hashIiENS4_18_Mod_range_hashingENS4_20_Default_ranged_hashENS4_20_Prime_rehash_policyENS4_17_Hashtable_traitsILb0ELb0ELb1EEEE5clearEv
FNDA:36,_ZNSt10_HashtableIiSt4pairIKiiESaIS2_ENSt8__detail10_Select1stESt8equal_toIiESt4hashIiENS4_18_Mod_range_hashingENS4_20_Default_ranged_hashENS4_20_Prime_rehash_policyENS4_17_Hashtable_traitsILb0ELb0ELb1EEEE5clearEv
FN:2316,_ZNSt10_HashtableIiSt4pairIKiSt13unordered_mapIiiSt4hashIiESt8equal_toIiESaIS0_IS1_iEEEESaISA_ENSt8__detail10_Select1stES6_S4_NSC_18_Mod_range_hashingENSC_20_Default_ranged_hashENSC_20_Prime_rehash_policyENSC_17_Hashtable_traitsILb0ELb0ELb1EEEE5clearEv
FNDA:12,_ZNSt10_HashtableIiSt4pairIKiSt13unordered_mapIiiSt4hashIiESt8equal_toIiESaIS0_IS1_iEEEESaISA_ENSt8__detail10_Select1stES6_S4_NSC_18_Mod_range_hashingENSC_20_Default_ranged_hashENSC_20_Prime_rehash_policyENSC_17_Hashtable_traitsILb0ELb0ELb1EEEE5clearEv
DA:407,18
DA:409,18
DA:410,18
DA:411,18
DA:407,8
DA:409,8
DA:410,8
DA:411,8
DA:416,24
DA:417,24
DA:422,42
DA:434,24
DA:436,0
DA:437,0
DA:440,24
DA:446,40
DA:453,30
DA:454,30
DA:453,10
DA:454,10
DA:463,34
DA:791,26
DA:1289,18
DA:1294,18
DA:1295,36
DA:1299,18
DA:1312,54
DA:1315,36
DA:1318,36
DA:1319,36
DA:1323,0
DA:1325,0
DA:1326,0
DA:1327,0
DA:1328,0
DA:1289,6
DA:1294,6
DA:1295,12
DA:1299,6
DA:1312,18
DA:1315,12
DA:1318,12
DA:1319,12
DA:1323,0
DA:1325,0
DA:1326,0
DA:1327,0
DA:1328,0
DA:1342,2
DA:1343,2
DA:1344,2
DA:1345,2
DA:1346,2
DA:1406,18
DA:1415,18
DA:1416,18
DA:1417,18
DA:1418,18
DA:1421,18
DA:1422,18
DA:1406,6
DA:1415,6
DA:1416,6
DA:1417,6
DA:1418,6
DA:1421,6
DA:1422,6
DA:1428,2
DA:1438,2
DA:1439,2
DA:1440,2
DA:1441,2
DA:1442,2
DA:1445,2
DA:1447,0
DA:1448,0
DA:1452,2
DA:1455,2
DA:1532,30
DA:1533,30
DA:2316,36
DA:2321,36
DA:2322,36
DA:2323,36
DA:2324,36
DA:2325,36
DA:2316,12
DA:2321,12
DA:2322,12
DA:2323,12
DA:2324,12
DA:2325,12
end_of_record
SF:/usr/include/aarch64-linux-gnu/bits/unistd.h
DA:38,10
end_of_record
SF:/usr/include/c++/11/ostream
DA:113,14
DA:221,2
end_of_record
SF:/usr/include/c++/11/bits/stl_vector.h
FN:333,_ZNSt12_Vector_baseISt6threadSaIS0_EED2Ev
FNDA:1,_ZNSt12_Vector_baseISt6threadSaIS0_EED2Ev
FN:333,_ZNSt12_Vector_baseIiSaIiEED2Ev
FNDA:1,_ZNSt12_Vector_baseIiSaIiEED2Ev
FN:333,_ZNSt12_Vector_baseISt5tupleIJiiiiEESaIS1_EED2Ev
FNDA:15,_ZNSt12_Vector_baseISt5tupleIJiiiiEESaIS1_EED2Ev
FN:359,_ZNSt12_Vector_baseISt5tupleIJiiiiEESaIS1_EE17_M_create_storageEm
FNDA:8,_ZNSt12_Vector_baseISt5tupleIJiiiiEESaIS1_EE17_M_create_storageEm
FN:553,_ZNSt6vectorISt5tupleIJiiiiEESaIS1_EEC2ERKS3_
FNDA:8,_ZNSt6vectorISt5tupleIJiiiiEESaIS1_EEC2ERKS3_
FN:678,_ZNSt6vectorISt6threadSaIS0_EED2Ev
FNDA:1,_ZNSt6vectorISt6threadSaIS0_EED2Ev
FN:1187,_ZNSt6vectorIiSaIiEE9push_backERKi
FNDA:2,_ZNSt6vectorIiSaIiEE9push_backERKi
FN:1756,_ZNKSt6vectorISt6threadSaIS0_EE12_M_check_lenEmPKc
FNDA:2,_ZNKSt6vectorISt6threadSaIS0_EE12_M_check_lenEmPKc
FN:1756,_ZNKSt6vectorIiSaIiEE12_M_check_lenEmPKc
FNDA:2,_ZNKSt6vectorIiSaIiEE12_M_check_lenEmPKc
FN:1756,_ZNKSt6vectorISt5tupleIJiiiiEESaIS1_EE12_M_check_lenEmPKc
FNDA:6,_ZNKSt6vectorISt5tupleIJiiiiEESaIS1_EE12_M_check_lenEmPKc
FN:1815,_ZNSt6vectorISt5tupleIJiiiiEESaIS1_EE14_M_move_assignEOS3_St17integral_constantIbLb1EE
FNDA:1,_ZNSt6vectorISt5tupleIJiiiiEESaIS1_EE14_M_move_assignEOS3_St17integral_constantIbLb1EE
DA:97,12
DA:98,1
DA:111,1
DA:112,1
DA:113,1
DA:305,8
DA:333,1
DA:335,1
DA:336,1
DA:337,1
DA:333,1
DA:335,1
DA:336,1
DA:337,1
DA:333,15
DA:335,15
DA:336,15
DA:337,15
DA:346,18
DA:353,27
DA:359,8
DA:361,8
DA:362,8
DA:363,8
DA:364,8
DA:553,8
DA:555,8
DA:557,8
DA:558,8
DA:561,8
DA:678,1
DA:680,1
DA:683,6
DA:714,1
DA:919,8
DA:1187,2
DA:1189,2
DA:1194,0
DA:1198,2
DA:1199,2
DA:1461,1
DA:1756,2
DA:1758,2
DA:1759,0
DA:1761,2
DA:1762,2
DA:1756,2
DA:1758,2
DA:1759,0
DA:1761,2
DA:1762,2
DA:1756,6
DA:1758,6
DA:1759,0
DA:1761,6
DA:1762,6
DA:1794,1
DA:1798,1
DA:1815,1
DA:1821,1
end_of_record
SF:/usr/include/c++/11/iostream
end_of_record
SF:/usr/include/c++/11/bits/unique_ptr.h
FN:79,_ZNKSt14default_deleteI3LFPEclEPS0_
FNDA:1,_ZNKSt14default_deleteI3LFPEclEPS0_
FN:165,_ZNSt15__uniq_ptr_implI3LFPSt14default_deleteIS0_EEaSEOS3_
FNDA:1,_ZNSt15__uniq_ptr_implI3LFPSt14default_deleteIS0_EEaSEOS3_
FN:355,_ZNSt10unique_ptrINSt6thread6_StateESt14default_deleteIS1_EED2Ev
FNDA:2,_ZNSt10unique_ptrINSt6thread6_StateESt14default_deleteIS1_EED2Ev
FN:355,_ZNSt10unique_ptrI3LFPSt14default_deleteIS0_EED2Ev
FNDA:2,_ZNSt10unique_ptrI3LFPSt14default_deleteIS0_EED2Ev
FN:355,_ZNSt10unique_ptrI13KruskalSolverSt14default_deleteIS0_EED2Ev
FNDA:1,_ZNSt10unique_ptrI13KruskalSolverSt14default_deleteIS0_EED2Ev
FN:355,_ZNSt10unique_ptrI9MSTSolverSt14default_deleteIS0_EED2Ev
FNDA:2,_ZNSt10unique_ptrI9MSTSolverSt14default_deleteIS0_EED2Ev
FN:355,_ZNSt10unique_ptrI10PrimSolverSt14default_deleteIS0_EED2Ev
FNDA:1,_ZNSt10unique_ptrI10PrimSolverSt14default_deleteIS0_EED2Ev
FN:961,_ZSt11make_uniqueI3LFPJiEENSt9_MakeUniqIT_E15__single_objectEDpOT0_
FNDA:1,_ZSt11make_uniqueI3LFPJiEENSt9_MakeUniqIT_E15__single_objectEDpOT0_
DA:79,1
DA:85,3
DA:86,2
DA:155,2
DA:165,1
DA:169,1
DA:173,4
DA:179,1
DA:180,1
DA:181,1
DA:182,0
DA:187,1
DA:188,3
DA:212,1
DA:322,0
DA:355,2
DA:360,2
DA:363,2
DA:355,2
DA:360,2
DA:361,1
DA:363,2
DA:355,1
DA:360,1
DA:363,1
DA:355,2
DA:360,2
DA:363,2
DA:355,1
DA:360,1
DA:363,1
DA:961,1
DA:962,3
end_of_record
SF:/usr/include/c++/11/bits/vector.tcc
FN:109,_ZNSt6vectorISt6threadSaIS0_EE12emplace_backIJM6ServerFviEPS4_RiEEERS0_DpOT_
FNDA:2,_ZNSt6vectorISt6threadSaIS0_EE12emplace_backIJM6ServerFviEPS4_RiEEERS0_DpOT_
FN:109,_ZNSt6vectorISt5tupleIJiiiiEESaIS1_EE12emplace_backIJRiS5_S5_S5_EEERS1_DpOT_
FNDA:8,_ZNSt6vectorISt5tupleIJiiiiEESaIS1_EE12emplace_backIJRiS5_S5_S5_EEERS1_DpOT_
FN:184,_ZNSt6vectorISt5tupleIJiiiiEESaIS1_EE8_M_eraseEN9__gnu_cxx17__normal_iteratorIPS1_S3_EES7_
FNDA:1,_ZNSt6vectorISt5tupleIJiiiiEESaIS1_EE8_M_eraseEN9__gnu_cxx17__normal_iteratorIPS1_S3_EES7_
FN:426,_ZNSt6vectorISt6threadSaIS0_EE17_M_realloc_insertIJM6ServerFviEPS4_RiEEEvN9__gnu_cxx17__normal_iteratorIPS0_S2_EEDpOT_
FNDA:2,_ZNSt6vectorISt6threadSaIS0_EE17_M_realloc_insertIJM6ServerFviEPS4_RiEEEvN9__gnu_cxx17__normal_iteratorIPS0_S2_EEDpOT_
FN:426,_ZNSt6vectorIiSaIiEE17_M_realloc_insertIJRKiEEEvN9__gnu_cxx17__normal_iteratorIPiS1_EEDpOT_
FNDA:2,_ZNSt6vectorIiSaIiEE17_M_realloc_insertIJRKiEEEvN9__gnu_cxx17__normal_iteratorIPiS1_EEDpOT_
FN:426,_ZNSt6vectorISt5tupleIJiiiiEESaIS1_EE17_M_realloc_insertIJRiS5_S5_S5_EEEvN9__gnu_cxx17__normal_iteratorIPS1_S3_EEDpOT_
FNDA:6,_ZNSt6vectorISt5tupleIJiiiiEESaIS1_EE17_M_realloc_insertIJRiS5_S5_S5_EEEvN9__gnu_cxx17__normal_iteratorIPS1_S3_EEDpOT_
DA:109,2
DA:112,2
DA:117,0
DA:121,2
DA:123,2
DA:109,8
DA:112,8
DA:117,4
DA:121,4
DA:123,8
DA:184,1
DA:187,1
DA:189,1
DA:191,1
DA:193,1
DA:426,2
DA:436,2
DA:437,2
DA:438,2
DA:449,2
DA:450,2
DA:464,2
DA:485,0
DA:487,0
DA:493,0
DA:501,2
DA:502,2
DA:503,2
DA:504,2
DA:505,2
DA:426,2
DA:436,2
DA:437,2
DA:438,2
DA:449,2
DA:450,2
DA:464,2
DA:501,2
DA:502,2
DA:503,2
DA:504,2
DA:505,2
DA:426,6
DA:436,6
DA:437,6
DA:438,6
DA:449,6
DA:450,6
DA:464,6
DA:501,6
DA:502,6
DA:503,6
DA:504,6
DA:505,6
end_of_record
SF:/usr/include/c++/11/bits/stl_tree.h
FN:609,_ZNSt8_Rb_treeIiSt4pairIKi5GraphESt10_Select1stIS3_ESt4lessIiESaIS3_EE14_M_create_nodeIJRKSt21piecewise_construct_tSt5tupleIJRS1_EESE_IJEEEEEPSt13_Rb_tree_nodeIS3_EDpOT_
FNDA:1,_ZNSt8_Rb_treeIiSt4pairIKi5GraphESt10_Select1stIS3_ESt4lessIiESaIS3_EE14_M_create_nodeIJRKSt21piecewise_construct_tSt5tupleIJRS1_EESE_IJEEEEEPSt13_Rb_tree_nodeIS3_EDpOT_
FN:1883,_ZNSt8_Rb_treeIiSt4pairIKiP6TripleESt10_Select1stIS4_ESt4lessIiESaIS4_EE8_M_eraseEPSt13_Rb_tree_nodeIS4_E
FNDA:1,_ZNSt8_Rb_treeIiSt4pairIKiP6TripleESt10_Select1stIS4_ESt4lessIiESaIS4_EE8_M_eraseEPSt13_Rb_tree_nodeIS4_E
FN:1883,_ZNSt8_Rb_treeIiSt4pairIKi9MSTResultESt10_Select1stIS3_ESt4lessIiESaIS3_EE8_M_eraseEPSt13_Rb_tree_nodeIS3_E
FNDA:1,_ZNSt8_Rb_treeIiSt4pairIKi9MSTResultESt10_Select1stIS3_ESt4lessIiESaIS3_EE8_M_eraseEPSt13_Rb_tree_nodeIS3_E
FN:1883,_ZNSt8_Rb_treeIiSt4pairIKi5GraphESt10_Select1stIS3_ESt4lessIiESaIS3_EE8_M_eraseEPSt13_Rb_tree_nodeIS3_E
FNDA:2,_ZNSt8_Rb_treeIiSt4pairIKi5GraphESt10_Select1stIS3_ESt4lessIiESaIS3_EE8_M_eraseEPSt13_Rb_tree_nodeIS3_E
FN:2061,_ZNSt8_Rb_treeIiSt4pairIKi5GraphESt10_Select1stIS3_ESt4lessIiESaIS3_EE24_M_get_insert_unique_posERS1_
FNDA:1,_ZNSt8_Rb_treeIiSt4pairIKi5GraphESt10_Select1stIS3_ESt4lessIiESaIS3_EE24_M_get_insert_unique_posERS1_
FN:2163,_ZNSt8_Rb_treeIiSt4pairIKi5GraphESt10_Select1stIS3_ESt4lessIiESaIS3_EE29_M_get_insert_hint_unique_posESt23_Rb_tree_const_iteratorIS3_ERS1_
FNDA:1,_ZNSt8_Rb_treeIiSt4pairIKi5GraphESt10_Select1stIS3_ESt4lessIiESaIS3_EE29_M_get_insert_hint_unique_posESt23_Rb_tree_const_iteratorIS3_ERS1_
FN:2330,_ZNSt8_Rb_treeIiSt4pairIKi5GraphESt10_Select1stIS3_ESt4lessIiESaIS3_EE14_M_insert_nodeEPSt18_Rb_tree_node_baseSB_PSt13_Rb_tree_nodeIS3_E
FNDA:1,_ZNSt8_Rb_treeIiSt4pairIKi5GraphESt10_Select1stIS3_ESt4lessIiESaIS3_EE14_M_insert_nodeEPSt18_Rb_tree_node_baseSB_PSt13_Rb_tree_nodeIS3_E
FN:2428,_ZNSt8_Rb_treeIiSt4pairIKi5GraphESt10_Select1stIS3_ESt4lessIiESaIS3_EE22_M_emplace_hint_uniqueIJRKSt21piecewise_construct_tSt5tupleIJRS1_EESE_IJEEEEESt17_Rb_tree_iteratorIS3_ESt23_Rb_tree_const_iteratorIS3_EDpOT_
FNDA:1,_ZNSt8_Rb_treeIiSt4pairIKi5GraphESt10_Select1stIS3_ESt4lessIiESaIS3_EE22_M_emplace_hint_uniqueIJRKSt21piecewise_construct_tSt5tupleIJRS1_EESE_IJEEEEESt17_Rb_tree_iteratorIS3_ESt23_Rb_tree_const_iteratorIS3_EDpOT_
FN:2520,_ZNSt8_Rb_treeIiSt4pairIKi5GraphESt10_Select1stIS3_ESt4lessIiESaIS3_EE4findERS1_
FNDA:2,_ZNSt8_Rb_treeIiSt4pairIKi5GraphESt10_Select1stIS3_ESt4lessIiESaIS3_EE4findERS1_
DA:146,1
DA:174,1
DA:175,1
DA:208,1
DA:209,1
DA:210,1
DA:211,1
DA:287,0
DA:302,0
DA:303,0
DA:350,1
DA:351,1
DA:355,1
DA:548,1
DA:609,1
DA:613,1
DA:624,1
DA:667,1
DA:735,12
DA:750,6
DA:780,8
DA:788,0
DA:984,1
DA:996,1
DA:1004,2
DA:1032,1
DA:1883,1
DA:1887,1
DA:1889,0
DA:1894,1
DA:1883,1
DA:1887,1
DA:1889,0
DA:1894,1
DA:1883,2
DA:1887,3
DA:1889,1
DA:1894,2
DA:1904,15
DA:1905,7
DA:2061,1
DA:2068,1
DA:2072,0
DA:2075,1
DA:2077,1
DA:2078,1
DA:2082,0
DA:2083,0
DA:2084,0
DA:2163,1
DA:2171,1
DA:2174,1
DA:2175,0
DA:2177,1
DA:2179,0
DA:2183,0
DA:2184,0
DA:2185,0
DA:2187,0
DA:2188,0
DA:2190,0
DA:2193,0
DA:2195,0
DA:2199,0
DA:2200,0
DA:2201,0
DA:2203,0
DA:2204,0
DA:2206,0
DA:2209,0
DA:2213,0
DA:2330,1
DA:2333,1
DA:2334,1
DA:2337,1
DA:2338,1
DA:2339,1
DA:2340,1
DA:2428,1
DA:2431,1
DA:2435,1
DA:2437,1
DA:2438,1
DA:2441,0
DA:2520,2
DA:2525,2
DA:2526,4
end_of_record
SF:/home/aharonba123/Desktop/H.W/Semester_B/Operating_Systems/Final_project/5_LF/KruskalSolver.hpp
DA:5,1
end_of_record
SF:/usr/include/c++/11/bits/stl_iterator.h
DA:1028,13
DA:1033,16
DA:1037,16
DA:1054,25
DA:1055,8
DA:1101,10
DA:1271,13
end_of_record
SF:/home/aharonba123/Desktop/H.W/Semester_B/Operating_Systems/Final_project/5_LF/MSTResult.hpp
end_of_record
SF:/usr/include/c++/11/sstream
DA:918,16
end_of_record
SF:/home/aharonba123/Desktop/H.W/Semester_B/Operating_Systems/Final_project/5_LF/Graph.hpp
FN:19,_ZN5Graph7addEdgeEiii
FNDA:4,_ZN5Graph7addEdgeEiii
FN:27,_ZN5Graph10removeEdgeEii
FNDA:1,_ZN5Graph10removeEdgeEii
FN:30,_ZZN5Graph10removeEdgeEiiENKUlRKSt5tupleIJiiiiEEE_clES3_
FNDA:6,_ZZN5Graph10removeEdgeEiiENKUlRKSt5tupleIJiiiiEEE_clES3_
DA:7,5
DA:15,1
DA:16,1
DA:19,4
DA:21,4
DA:22,4
DA:23,4
DA:24,4
DA:27,1
DA:29,1
DA:30,6
DA:34,6
DA:37,1
DA:41,2
end_of_record
SF:/usr/include/aarch64-linux-gnu/bits/byteswap.h
DA:37,1
end_of_record
SF:/usr/include/c++/11/bits/stl_construct.h
FN:160,_ZNSt12_Destroy_auxILb0EE9__destroyIPSt6threadEEvT_S4_
FNDA:1,_ZNSt12_Destroy_auxILb0EE9__destroyIPSt6threadEEvT_S4_
DA:160,1
DA:162,3
DA:164,1
DA:196,1
end_of_record
SF:/usr/include/c++/11/bits/invoke.h
FN:71,_ZSt13__invoke_implIvM6ServerFviEPS0_JiEET_St21__invoke_memfun_derefOT0_OT1_DpOT2_
FNDA:2,_ZSt13__invoke_implIvM6ServerFviEPS0_JiEET_St21__invoke_memfun_derefOT0_OT1_DpOT2_
DA:61,2
DA:71,2
DA:74,2
DA:96,2
end_of_record
SF:/usr/include/c++/11/bits/functional_hash.h
DA:154,74
end_of_record
SF:/usr/include/c++/11/bits/stl_uninitialized.h
DA:91,32
DA:1009,2
DA:1010,3
DA:1011,1
DA:1012,2
DA:1031,25
end_of_record
SF:/usr/include/c++/11/bits/basic_string.h
FN:533,_ZNSt7__cxx1112basic_stringIcSt11char_traitsIcESaIcEEC2IS3_EEPKcRKS3_
FNDA:8,_ZNSt7__cxx1112basic_stringIcSt11char_traitsIcESaIcEEC2IS3_EEPKcRKS3_
FN:1491,_ZNSt7__cxx1112basic_stringIcSt11char_traitsIcESaIcEE6assignIPcvEERS4_T_S8_
FNDA:16,_ZNSt7__cxx1112basic_stringIcSt11char_traitsIcESaIcEE6assignIPcvEERS4_T_S8_
FN:6172,_ZStplIcSt11char_traitsIcESaIcEENSt7__cxx1112basic_stringIT_T0_T1_EEOS8_S9_
FNDA:36,_ZStplIcSt11char_traitsIcESaIcEENSt7__cxx1112basic_stringIT_T0_T1_EEOS8_S9_
FN:6194,_ZStplIcSt11char_traitsIcESaIcEENSt7__cxx1112basic_stringIT_T0_T1_EEPKS5_OS8_
FNDA:18,_ZStplIcSt11char_traitsIcESaIcEENSt7__cxx1112basic_stringIT_T0_T1_EEPKS5_OS8_
FN:6206,_ZStplIcSt11char_traitsIcESaIcEENSt7__cxx1112basic_stringIT_T0_T1_EEOS8_PKS5_
FNDA:54,_ZStplIcSt11char_traitsIcESaIcEENSt7__cxx1112basic_stringIT_T0_T1_EEOS8_PKS5_
FN:6660,_ZNSt7__cxx119to_stringEi
FNDA:54,_ZNSt7__cxx119to_stringEi
DA:164,8
DA:165,62
DA:167,10
DA:168,118
DA:187,2
DA:191,134
DA:195,2
DA:201,170
DA:211,144
DA:219,2
DA:225,16
DA:406,16
DA:439,10
DA:533,8
DA:536,8
DA:539,8
DA:540,8
DA:555,54
DA:568,108
DA:576,0
DA:585,36
DA:672,50
DA:833,16
DA:921,2
DA:927,36
DA:978,0
DA:1062,54
DA:1214,36
DA:1491,16
DA:1492,16
DA:1661,0
DA:6172,36
DA:6185,36
DA:6186,36
DA:6194,18
DA:6196,18
DA:6206,54
DA:6208,54
DA:6250,23
DA:6536,32
DA:6660,54
DA:6662,54
DA:6663,54
DA:6664,54
DA:6665,54
DA:6666,54
DA:6667,54
end_of_record
SF:/home/aharonba123/Desktop/H.W/Semester_B/Operating_Systems/Final_project/5_LF/PrimSolver.hpp
DA:5,1
end_of_record
SF:/usr/include/c++/11/bits/predefined_ops.h
DA:318,3
end_of_record
SF:/usr/include/c++/11/bits/unordered_map.h
DA:102,30
DA:181,18
end_of_record
SF:/usr/include/c++/11/bits/hashtable_policy.h
FN:1870,_ZNSt8__detail16_Hashtable_allocISaINS_10_Hash_nodeISt4pairIKiiELb0EEEEE16_M_allocate_nodeIJRKS4_EEEPS5_DpOT_
FNDA:54,_ZNSt8__detail16_Hashtable_allocISaINS_10_Hash_nodeISt4pairIKiiELb0EEEEE16_M_allocate_nodeIJRKS4_EEEPS5_DpOT_
FN:1870,_ZNSt8__detail16_Hashtable_allocISaINS_10_Hash_nodeISt4pairIKiSt13unordered_mapIiiSt4hashIiESt8equal_toIiESaIS2_IS3_iEEEELb0EEEEE16_M_allocate_nodeIJRKSC_EEEPSD_DpOT_
FNDA:18,_ZNSt8__detail16_Hashtable_allocISaINS_10_Hash_nodeISt4pairIKiSt13unordered_mapIiiSt4hashIiESt8equal_toIiESaIS2_IS3_iEEEELb0EEEEE16_M_allocate_nodeIJRKSC_EEEPSD_DpOT_
FN:1892,_ZNSt8__detail16_Hashtable_allocISaINS_10_Hash_nodeISt4pairIKiSt13unordered_mapIiiSt4hashIiESt8equal_toIiESaIS2_IS3_iEEEELb0EEEEE18_M_deallocate_nodeEPSD_
FNDA:30,_ZNSt8__detail16_Hashtable_allocISaINS_10_Hash_nodeISt4pairIKiSt13unordered_mapIiiSt4hashIiESt8equal_toIiESaIS2_IS3_iEEEELb0EEEEE18_M_deallocate_nodeEPSD_
FN:1922,_ZNSt8__detail16_Hashtable_allocISaINS_10_Hash_nodeISt4pairIKiiELb0EEEEE19_M_allocate_bucketsEm
FNDA:18,_ZNSt8__detail16_Hashtable_allocISaINS_10_Hash_nodeISt4pairIKiiELb0EEEEE19_M_allocate_bucketsEm
FN:1922,_ZNSt8__detail16_Hashtable_allocISaINS_10_Hash_nodeISt4pairIKiSt13unordered_mapIiiSt4hashIiESt8equal_toIiESaIS2_IS3_iEEEELb0EEEEE19_M_allocate_bucketsEm
FNDA:6,_ZNSt8__detail16_Hashtable_allocISaINS_10_Hash_nodeISt4pairIKiSt13unordered_mapIiiSt4hashIiESt8equal_toIiESaIS2_IS3_iEEEELb0EEEEE19_M_allocate_bucketsEm
DA:162,24
DA:163,24
DA:168,72
DA:219,42
DA:221,2
DA:283,72
DA:404,24
DA:430,74
DA:478,2
DA:1219,74
DA:1870,54
DA:1881,54
DA:1870,18
DA:1881,18
DA:1883,0
DA:1886,0
DA:1892,30
DA:1896,108
DA:1904,138
DA:1912,186
DA:1916,30
DA:1922,18
DA:1929,18
DA:1930,18
DA:1922,6
DA:1929,6
DA:1930,6
DA:1943,38
end_of_record
SF:/usr/include/c++/11/bits/move.h
DA:205,1
end_of_record
SF:/usr/include/c++/11/bits/std_function.h
FN:158,_ZNSt14_Function_base13_Base_managerIZN6Server14solveMSTWithLFEi16MSTAlgorithmTypeEUlvE_E9_M_createIRKS3_EEvRSt9_Any_dataOT_St17integral_constantIbLb0EE
FNDA:4,_ZNSt14_Function_base13_Base_managerIZN6Server14solveMSTWithLFEi16MSTAlgorithmTypeEUlvE_E9_M_createIRKS3_EEvRSt9_Any_dataOT_St17integral_constantIbLb0EE
FN:158,_ZNSt14_Function_base13_Base_managerIZN6Server14solveMSTWithLFEi16MSTAlgorithmTypeEUlvE_E9_M_createIS3_EEvRSt9_Any_dataOT_St17integral_constantIbLb0EE
FNDA:2,_ZNSt14_Function_base13_Base_managerIZN6Server14solveMSTWithLFEi16MSTAlgorithmTypeEUlvE_E9_M_createIS3_EEvRSt9_Any_dataOT_St17integral_constantIbLb0EE
FN:173,_ZNSt14_Function_base13_Base_managerIZN6Server14solveMSTWithLFEi16MSTAlgorithmTypeEUlvE_E10_M_destroyERSt9_Any_dataSt17integral_constantIbLb0EE
FNDA:6,_ZNSt14_Function_base13_Base_managerIZN6Server14solveMSTWithLFEi16MSTAlgorithmTypeEUlvE_E10_M_destroyERSt9_Any_dataSt17integral_constantIbLb0EE
FN:180,_ZNSt14_Function_base13_Base_managerIZN6Server14solveMSTWithLFEi16MSTAlgorithmTypeEUlvE_E10_M_managerERSt9_Any_dataRKS5_St18_Manager_operation
FNDA:10,_ZNSt14_Function_base13_Base_managerIZN6Server14solveMSTWithLFEi16MSTAlgorithmTypeEUlvE_E10_M_managerERSt9_Any_dataRKS5_St18_Manager_operation
FN:241,_ZNSt14_Function_baseD2Ev
FNDA:2,_ZNSt14_Function_baseD2Ev
FN:267,_ZNSt17_Function_handlerIFvvEZN6Server14solveMSTWithLFEi16MSTAlgorithmTypeEUlvE_E10_M_managerERSt9_Any_dataRKS5_St18_Manager_operation
FNDA:10,_ZNSt17_Function_handlerIFvvEZN6Server14solveMSTWithLFEi16MSTAlgorithmTypeEUlvE_E10_M_managerERSt9_Any_dataRKS5_St18_Manager_operation
FN:288,_ZNSt17_Function_handlerIFvvEZN6Server14solveMSTWithLFEi16MSTAlgorithmTypeEUlvE_E9_M_invokeERKSt9_Any_data
FNDA:2,_ZNSt17_Function_handlerIFvvEZN6Server14solveMSTWithLFEi16MSTAlgorithmTypeEUlvE_E9_M_invokeERKSt9_Any_data
FN:435,_ZNSt8functionIFvvEEC2IZN6Server14solveMSTWithLFEi16MSTAlgorithmTypeEUlvE_vEEOT_
FNDA:2,_ZNSt8functionIFvvEEC2IZN6Server14solveMSTWithLFEi16MSTAlgorithmTypeEUlvE_vEEOT_
DA:142,6
DA:158,4
DA:161,4
DA:162,4
DA:158,2
DA:161,2
DA:162,2
DA:173,6
DA:175,12
DA:176,6
DA:180,10
DA:183,10
DA:187,0
DA:191,0
DA:194,0
DA:195,0
DA:202,6
DA:203,6
DA:204,6
DA:206,10
DA:215,4
DA:216,6
DA:241,2
DA:243,2
DA:244,2
DA:245,2
DA:267,10
DA:270,10
DA:274,0
DA:275,0
DA:278,0
DA:279,0
DA:281,10
DA:282,10
DA:284,10
DA:288,2
DA:291,2
DA:334,2
DA:435,2
DA:437,2
DA:449,2
DA:451,2
DA:452,2
DA:454,2
end_of_record
SF:/usr/include/c++/11/bits/stl_map.h
FN:492,_ZNSt3mapIi5GraphSt4lessIiESaISt4pairIKiS0_EEEixERS4_
FNDA:6,_ZNSt3mapIi5GraphSt4lessIiESaISt4pairIKiS0_EEEixERS4_
DA:302,1
DA:492,6
DA:499,6
DA:501,1
DA:502,1
DA:503,1
DA:507,6
DA:1170,2
end_of_record
SF:/usr/include/aarch64-linux-gnu/c++/11/bits/gthr-default.h
DA:749,24
DA:779,24
end_of_record
SF:/usr/include/c++/11/bits/stl_algo.h
FN:813,_ZSt11__remove_ifIN9__gnu_cxx17__normal_iteratorIPSt5tupleIJiiiiEESt6vectorIS3_SaIS3_EEEENS0_5__ops10_Iter_predIZN5Graph10removeEdgeEiiEUlRKS3_E_EEET_SG_SG_T0_
FNDA:1,_ZSt11__remove_ifIN9__gnu_cxx17__normal_iteratorIPSt5tupleIJiiiiEESt6vectorIS3_SaIS3_EEEENS0_5__ops10_Iter_predIZN5Graph10removeEdgeEiiEUlRKS3_E_EEET_SG_SG_T0_
DA:813,1
DA:816,1
DA:817,1
DA:818,0
DA:821,2
DA:822,1
DA:827,1
DA:894,1
end_of_record
SF:/usr/include/c++/11/ext/new_allocator.h
FN:103,_ZN9__gnu_cxx13new_allocatorINSt8__detail10_Hash_nodeISt4pairIKiiELb0EEEE8allocateEmPKv
FNDA:54,_ZN9__gnu_cxx13new_allocatorINSt8__detail10_Hash_nodeISt4pairIKiiELb0EEEE8allocateEmPKv
FN:103,_ZN9__gnu_cxx13new_allocatorINSt8__detail10_Hash_nodeISt4pairIKiSt13unordered_mapIiiSt4hashIiESt8equal_toIiESaIS3_IS4_iEEEELb0EEEE8allocateEmPKv
FNDA:18,_ZN9__gnu_cxx13new_allocatorINSt8__detail10_Hash_nodeISt4pairIKiSt13unordered_mapIiiSt4hashIiESt8equal_toIiESaIS3_IS4_iEEEELb0EEEE8allocateEmPKv
FN:103,_ZN9__gnu_cxx13new_allocatorIPNSt8__detail15_Hash_node_baseEE8allocateEmPKv
FNDA:24,_ZN9__gnu_cxx13new_allocatorIPNSt8__detail15_Hash_node_baseEE8allocateEmPKv
FN:103,_ZN9__gnu_cxx13new_allocatorISt13_Rb_tree_nodeISt4pairIKi5GraphEEE8allocateEmPKv
FNDA:1,_ZN9__gnu_cxx13new_allocatorISt13_Rb_tree_nodeISt4pairIKi5GraphEEE8allocateEmPKv
FN:103,_ZN9__gnu_cxx13new_allocatorISt6threadE8allocateEmPKv
FNDA:2,_ZN9__gnu_cxx13new_allocatorISt6threadE8allocateEmPKv
FN:103,_ZN9__gnu_cxx13new_allocatorIiE8allocateEmPKv
FNDA:2,_ZN9__gnu_cxx13new_allocatorIiE8allocateEmPKv
FN:103,_ZN9__gnu_cxx13new_allocatorISt5tupleIJiiiiEEE8allocateEmPKv
FNDA:14,_ZN9__gnu_cxx13new_allocatorISt5tupleIJiiiiEEE8allocateEmPKv
DA:103,54
DA:111,54
DA:115,0
DA:116,0
DA:117,0
DA:127,54
DA:103,18
DA:111,18
DA:115,0
DA:116,0
DA:117,0
DA:127,18
DA:103,24
DA:111,24
DA:115,0
DA:116,0
DA:117,0
DA:127,24
DA:103,1
DA:111,1
DA:115,0
DA:116,0
DA:117,0
DA:127,1
DA:103,2
DA:111,2
DA:115,0
DA:116,0
DA:117,0
DA:127,2
DA:103,2
DA:111,2
DA:115,0
DA:116,0
DA:117,0
DA:127,2
DA:103,14
DA:111,14
DA:115,0
DA:116,0
DA:117,0
DA:127,14
DA:145,196
DA:162,4
DA:168,8
end_of_record
SF:/usr/include/c++/11/ext/aligned_buffer.h
DA:104,72
end_of_record
SF:/usr/include/c++/11/bits/stl_pair.h
DA:211,0
DA:314,18
end_of_record
SF:/usr/include/c++/11/bits/locale_facets.h
FN:875,_ZNKSt5ctypeIcE5widenEc
FNDA:14,_ZNKSt5ctypeIcE5widenEc
FN:1087,_ZNKSt5ctypeIcE8do_widenEc
FNDA:1,_ZNKSt5ctypeIcE8do_widenEc
DA:875,14
DA:877,14
DA:878,13
DA:879,1
DA:880,1
DA:1087,1
DA:1088,1
end_of_record
SF:/usr/include/c++/11/bits/char_traits.h
DA:357,46
DA:399,8
end_of_record
SF:/usr/include/c++/11/bits/charconv.h
FN:47,_ZNSt8__detail14__to_chars_lenIjEEjT_i
FNDA:54,_ZNSt8__detail14__to_chars_lenIjEEjT_i
FN:72,_ZNSt8__detail18__to_chars_10_implIjEEvPcjT_
FNDA:54,_ZNSt8__detail18__to_chars_10_implIjEEvPcjT_
DA:47,54
DA:53,54
DA:54,54
DA:55,54
DA:58,54
DA:59,0
DA:60,0
DA:61,0
DA:62,0
DA:63,0
DA:72,54
DA:83,54
DA:84,54
DA:86,0
DA:87,0
DA:88,0
DA:89,0
DA:90,0
DA:92,54
DA:94,0
DA:95,0
DA:96,0
DA:99,54
DA:100,54
end_of_record
SF:/home/aharonba123/Desktop/H.W/Semester_B/Operating_Systems/Final_project/5_LF/Server.cpp
FN:24,_Z15threadSafePrintRKNSt7__cxx1119basic_ostringstreamIcSt11char_traitsIcESaIcEEE
FNDA:14,_Z15threadSafePrintRKNSt7__cxx1119basic_ostringstreamIcSt11char_traitsIcESaIcEEE
FN:31,_ZN6ServerC2Ei
FNDA:1,_ZN6ServerC2Ei
FN:34,_ZN6ServerD2Ev
FNDA:1,_ZN6ServerD2Ev
FN:39,_ZN6Server5startEv
FNDA:1,_ZN6Server5startEv
FN:127,_ZN6Server4stopEv
FNDA:1,_ZN6Server4stopEv
FN:140,_ZN6Server19closeAllConnectionsEv
FNDA:0,_ZN6Server19closeAllConnectionsEv
FN:152,_ZN6Server12handleClientEi
FNDA:2,_ZN6Server12handleClientEi
FN:169,_ZN6Server14processRequestEiRKNSt7__cxx1112basic_stringIcSt11char_traitsIcESaIcEEE
FNDA:8,_ZN6Server14processRequestEiRKNSt7__cxx1112basic_stringIcSt11char_traitsIcESaIcEEE
FN:208,_ZN6Server8addGraphEii
FNDA:1,_ZN6Server8addGraphEii
FN:217,_ZN6Server7addEdgeEiiii
FNDA:4,_ZN6Server7addEdgeEiiii
FN:226,_ZN6Server10removeEdgeEiii
FNDA:1,_ZN6Server10removeEdgeEiii
FN:235,_ZN6Server14solveMSTWithLFEi16MSTAlgorithmType
FNDA:2,_ZN6Server14solveMSTWithLFEi16MSTAlgorithmType
FN:262,_ZZN6Server14solveMSTWithLFEi16MSTAlgorithmTypeENKUlvE_clEv
FNDA:2,_ZZN6Server14solveMSTWithLFEi16MSTAlgorithmTypeENKUlvE_clEv
FN:293,main
FNDA:1,main
DA:24,14
DA:27,14
DA:28,14
DA:31,1
DA:34,1
DA:36,1
DA:37,1
DA:39,1
DA:41,1
DA:44,1
DA:45,1
DA:47,0
DA:48,0
DA:49,0
DA:51,0
DA:53,1
DA:54,1
DA:56,1
DA:58,1
DA:60,1
DA:62,1
DA:64,0
DA:65,0
DA:66,0
DA:67,0
DA:69,0
DA:71,1
DA:73,0
DA:74,0
DA:75,0
DA:76,0
DA:78,0
DA:80,1
DA:81,1
DA:82,1
DA:84,3
DA:86,3
DA:87,3
DA:90,3
DA:92,1
DA:93,1
DA:94,1
DA:96,1
DA:98,2
DA:99,2
DA:100,2
DA:102,2
DA:103,2
DA:105,2
DA:106,2
DA:110,3
DA:112,2
DA:114,2
DA:125,1
DA:127,1
DA:130,1
DA:132,1
DA:133,1
DA:135,1
DA:136,1
DA:137,1
DA:138,1
DA:140,0
DA:142,0
DA:143,0
DA:145,0
DA:146,0
DA:147,0
DA:148,0
DA:149,0
DA:150,0
DA:152,2
DA:157,12
DA:159,8
DA:160,16
DA:163,2
DA:164,2
DA:165,2
DA:166,2
DA:167,2
DA:169,8
DA:171,8
DA:173,8
DA:175,8
DA:178,1
DA:179,1
DA:181,7
DA:184,4
DA:185,4
DA:187,3
DA:190,1
DA:191,1
DA:193,2
DA:196,2
DA:197,2
DA:198,2
DA:202,0
DA:203,0
DA:204,0
DA:205,0
DA:206,8
DA:208,1
DA:210,1
DA:211,1
DA:212,1
DA:213,1
DA:214,1
DA:215,2
DA:217,4
DA:219,4
DA:220,4
DA:221,4
DA:222,4
DA:223,4
DA:224,8
DA:226,1
DA:228,1
DA:229,1
DA:230,1
DA:231,1
DA:232,1
DA:233,2
DA:235,2
DA:238,2
DA:241,2
DA:243,0
DA:244,0
DA:245,0
DA:247,0
DA:250,2
DA:251,2
DA:253,0
DA:254,0
DA:255,0
DA:257,0
DA:260,2
DA:262,18
DA:264,2
DA:265,2
DA:267,6
DA:269,4
DA:272,2
DA:273,2
DA:274,2
DA:275,2
DA:277,8
DA:279,24
DA:281,36
DA:286,2
DA:288,2
DA:289,4
DA:290,4
DA:293,1
DA:296,1
DA:297,1
DA:298,1
DA:300,1
DA:301,2
DA:303,1
DA:304,1
DA:307,1
end_of_record
SF:/usr/include/c++/11/bits/atomic_base.h
DA:345,1
DA:385,3
DA:464,1
DA:488,3
end_of_record
SF:/usr/include/c++/11/bits/stl_function.h
DA:400,14
DA:1175,1
end_of_record
TN:
SF:/usr/include/c++/11/bits/deque.tcc
FN:484,_ZNSt5dequeISt8functionIFvvEESaIS2_EE16_M_push_back_auxIJRKS2_EEEvDpOT_
FNDA:0,_ZNSt5dequeISt8functionIFvvEESaIS2_EE16_M_push_back_auxIJRKS2_EEEvDpOT_
FN:576,_ZNSt5dequeISt8functionIFvvEESaIS2_EE16_M_pop_front_auxEv
FNDA:0,_ZNSt5dequeISt8functionIFvvEESaIS2_EE16_M_pop_front_auxEv
FN:859,_ZNSt5dequeISt8functionIFvvEESaIS2_EE19_M_destroy_data_auxESt15_Deque_iteratorIS2_RS2_PS2_ES8_
FNDA:1,_ZNSt5dequeISt8functionIFvvEESaIS2_EE19_M_destroy_data_auxESt15_Deque_iteratorIS2_RS2_PS2_ES8_
FN:931,_ZNSt5dequeISt8functionIFvvEESaIS2_EE17_M_reallocate_mapEmb
FNDA:0,_ZNSt5dequeISt8functionIFvvEESaIS2_EE17_M_reallocate_mapEmb
DA:484,0
DA:492,0
DA:493,0
DA:496,0
DA:497,0
DA:501,0
DA:507,0
DA:509,0
DA:511,0
DA:513,0
DA:514,0
DA:516,0
DA:576,0
DA:579,0
DA:581,0
DA:582,0
DA:583,0
DA:584,0
DA:859,1
DA:862,1
DA:863,1
DA:864,0
DA:867,1
DA:869,0
DA:871,0
DA:875,1
DA:877,1
DA:931,0
DA:934,0
DA:935,0
DA:936,0
DA:939,0
DA:941,0
DA:942,0
DA:943,0
DA:944,0
DA:945,0
DA:949,0
DA:955,0
DA:956,0
DA:960,0
DA:961,0
DA:962,0
DA:963,0
DA:965,0
DA:967,0
DA:968,0
DA:972,0
DA:973,0
end_of_record
SF:/usr/include/c++/11/bits/stl_queue.h
FN:166,_ZNSt5queueISt8functionIFvvEESt5dequeIS2_SaIS2_EEEC2IS5_vEEv
FNDA:1,_ZNSt5queueISt8functionIFvvEESt5dequeIS2_SaIS2_EEEC2IS5_vEEv
DA:96,1
DA:166,1
DA:167,1
DA:266,2
DA:301,2
end_of_record
SF:/usr/include/c++/11/bits/stl_deque.h
FN:353,_ZStmiRKSt15_Deque_iteratorISt8functionIFvvEERS2_PS2_ES7_
FNDA:0,_ZStmiRKSt15_Deque_iteratorISt8functionIFvvEERS2_PS2_ES7_
FN:437,_ZNSt11_Deque_baseISt8functionIFvvEESaIS2_EEC2Ev
FNDA:1,_ZNSt11_Deque_baseISt8functionIFvvEESaIS2_EEC2Ev
FN:596,_ZNSt11_Deque_baseISt8functionIFvvEESaIS2_EED2Ev
FNDA:1,_ZNSt11_Deque_baseISt8functionIFvvEESaIS2_EED2Ev
FN:617,_ZNSt11_Deque_baseISt8functionIFvvEESaIS2_EE17_M_initialize_mapEm
FNDA:1,_ZNSt11_Deque_baseISt8functionIFvvEESaIS2_EE17_M_initialize_mapEm
FN:656,_ZNSt11_Deque_baseISt8functionIFvvEESaIS2_EE15_M_create_nodesEPPS2_S6_
FNDA:1,_ZNSt11_Deque_baseISt8functionIFvvEESaIS2_EE15_M_create_nodesEPPS2_S6_
FN:1006,_ZNSt5dequeISt8functionIFvvEESaIS2_EED2Ev
FNDA:1,_ZNSt5dequeISt8functionIFvvEESaIS2_EED2Ev
FN:1496,_ZNSt5dequeISt8functionIFvvEESaIS2_EE9push_backERKS2_
FNDA:2,_ZNSt5dequeISt8functionIFvvEESaIS2_EE9push_backERKS2_
FN:1532,_ZNSt5dequeISt8functionIFvvEESaIS2_EE9pop_frontEv
FNDA:2,_ZNSt5dequeISt8functionIFvvEESaIS2_EE9pop_frontEv
FN:2045,_ZNSt5dequeISt8functionIFvvEESaIS2_EE15_M_destroy_dataESt15_Deque_iteratorIS2_RS2_PS2_ES8_RKS3_
FNDA:1,_ZNSt5dequeISt8functionIFvvEESaIS2_EE15_M_destroy_dataESt15_Deque_iteratorIS2_RS2_PS2_ES8_RKS3_
FN:2126,_ZNSt5dequeISt8functionIFvvEESaIS2_EE22_M_reserve_map_at_backEm
FNDA:0,_ZNSt5dequeISt8functionIFvvEESaIS2_EE22_M_reserve_map_at_backEm
DA:151,1
DA:152,1
DA:168,1
DA:169,2
DA:170,2
DA:262,1
DA:263,1
DA:264,0
DA:269,2980
DA:353,0
DA:356,0
DA:357,0
DA:358,0
DA:437,1
DA:439,2
DA:495,1
DA:496,1
DA:548,1
DA:562,1
DA:584,1
DA:596,1
DA:599,1
DA:601,1
DA:602,1
DA:603,1
DA:605,1
DA:617,1
DA:620,1
DA:623,2
DA:624,1
DA:625,1
DA:632,1
DA:633,1
DA:634,1
DA:637,1
DA:638,0
DA:640,0
DA:641,0
DA:642,0
DA:643,0
DA:647,1
DA:648,1
DA:649,1
DA:650,1
DA:651,1
DA:652,1
DA:656,1
DA:662,2
DA:663,1
DA:665,0
DA:668,0
DA:670,1
DA:678,2
DA:679,1
DA:834,1
DA:1006,1
DA:1007,1
DA:1234,0
DA:1496,2
DA:1498,2
DA:1499,2
DA:1503,2
DA:1506,0
DA:1507,2
DA:1532,2
DA:1535,2
DA:1536,2
DA:1540,2
DA:1543,0
DA:1544,2
DA:2045,1
DA:2049,1
DA:2050,1
DA:2126,0
DA:2128,0
DA:2129,0
DA:2130,0
DA:2131,0
end_of_record
SF:/usr/include/c++/11/bits/stl_construct.h
FN:160,_ZNSt12_Destroy_auxILb0EE9__destroyIPSt6threadEEvT_S4_
FNDA:1,_ZNSt12_Destroy_auxILb0EE9__destroyIPSt6threadEEvT_S4_
DA:160,1
DA:162,6
DA:164,1
DA:196,1
end_of_record
SF:/usr/include/c++/11/bits/stl_uninitialized.h
DA:1031,9
end_of_record
SF:/usr/include/c++/11/bits/invoke.h
FN:71,_ZSt13__invoke_implIvM3LFPFviEPS0_JiEET_St21__invoke_memfun_derefOT0_OT1_DpOT2_
FNDA:4,_ZSt13__invoke_implIvM3LFPFviEPS0_JiEET_St21__invoke_memfun_derefOT0_OT1_DpOT2_
DA:71,4
DA:74,4
DA:96,4
end_of_record
SF:/usr/include/c++/11/condition_variable
FN:100,_ZNSt18condition_variable4waitIZN3LFP13taskProcessorEiEUlvE_EEvRSt11unique_lockISt5mutexET_
FNDA:1486,_ZNSt18condition_variable4waitIZN3LFP13taskProcessorEiEUlvE_EEvRSt11unique_lockISt5mutexET_
DA:100,1486
DA:102,1498
DA:103,12
DA:104,1486
end_of_record
SF:/usr/include/aarch64-linux-gnu/c++/11/bits/gthr-default.h
DA:749,4463
DA:779,4476
end_of_record
SF:/usr/include/c++/11/ext/new_allocator.h
FN:103,_ZN9__gnu_cxx13new_allocatorISt8functionIFvvEEE8allocateEmPKv
FNDA:1,_ZN9__gnu_cxx13new_allocatorISt8functionIFvvEEE8allocateEmPKv
FN:103,_ZN9__gnu_cxx13new_allocatorIPSt8functionIFvvEEE8allocateEmPKv
FNDA:1,_ZN9__gnu_cxx13new_allocatorIPSt8functionIFvvEEE8allocateEmPKv
FN:103,_ZN9__gnu_cxx13new_allocatorISt6threadE8allocateEmPKv
FNDA:3,_ZN9__gnu_cxx13new_allocatorISt6threadE8allocateEmPKv
DA:103,1
DA:111,1
DA:115,0
DA:116,0
DA:117,0
DA:127,1
DA:103,1
DA:111,1
DA:115,0
DA:116,0
DA:117,0
DA:127,1
DA:103,3
DA:111,3
DA:115,0
DA:116,0
DA:117,0
DA:127,3
DA:145,5
DA:162,6
end_of_record
SF:/usr/include/c++/11/bits/move.h
DA:204,2
DA:205,3
DA:206,2
end_of_record
SF:/usr/include/c++/11/bits/std_function.h
FN:241,_ZNSt14_Function_baseD2Ev
FNDA:1489,_ZNSt14_Function_baseD2Ev
FN:386,_ZNSt8functionIFvvEEC2ERKS1_
FNDA:4,_ZNSt8functionIFvvEEC2ERKS1_
FN:469,_ZNSt8functionIFvvEEaSERKS1_
FNDA:2,_ZNSt8functionIFvvEEaSERKS1_
FN:586,_ZNKSt8functionIFvvEEclEv
FNDA:2,_ZNKSt8functionIFvvEEclEv
DA:241,1489
DA:243,1489
DA:244,4
DA:245,1489
DA:247,6
DA:334,1489
DA:368,1485
DA:369,1485
DA:386,4
DA:387,4
DA:389,4
DA:391,4
DA:392,4
DA:393,4
DA:395,4
DA:469,2
DA:471,2
DA:472,2
DA:586,2
DA:588,2
DA:589,0
DA:590,2
end_of_record
SF:/usr/include/c++/11/bits/stl_algobase.h
FN:611,_ZSt4copyIPPSt8functionIFvvEES4_ET0_T_S6_S5_
FNDA:0,_ZSt4copyIPPSt8functionIFvvEES4_ET0_T_S6_S5_
FN:731,_ZNSt20__copy_move_backwardILb0ELb1ESt26random_access_iterator_tagE13__copy_move_bIPSt8functionIFvvEEEEPT_PKS7_SA_S8_
FNDA:0,_ZNSt20__copy_move_backwardILb0ELb1ESt26random_access_iterator_tagE13__copy_move_bIPSt8functionIFvvEEEEPT_PKS7_SA_S8_
DA:259,4
DA:260,1
DA:429,0
DA:430,0
DA:431,0
DA:432,0
DA:611,0
DA:620,0
DA:731,0
DA:740,0
DA:741,0
DA:742,0
DA:743,0
DA:760,0
DA:859,0
end_of_record
SF:/usr/include/c++/11/bits/alloc_traits.h
DA:464,5
DA:496,3
DA:520,3
DA:539,0
DA:849,0
end_of_record
SF:/usr/include/c++/11/bits/std_thread.h
FN:127,_ZNSt6threadC2IM3LFPFviEJPS1_RiEvEEOT_DpOT0_
FNDA:4,_ZNSt6threadC2IM3LFPFviEJPS1_RiEvEEOT_DpOT0_
FN:211,_ZNSt6thread11_State_implINS_8_InvokerISt5tupleIJM3LFPFviEPS3_iEEEEE6_M_runEv
FNDA:4,_ZNSt6thread11_State_implINS_8_InvokerISt5tupleIJM3LFPFviEPS3_iEEEEE6_M_runEv
DA:86,3
DA:127,4
DA:143,4
DA:146,4
DA:151,4
DA:152,0
DA:153,7
DA:206,4
DA:207,4
DA:211,4
end_of_record
SF:/usr/include/c++/11/bits/std_mutex.h
FN:98,_ZNSt5mutex4lockEv
FNDA:4463,_ZNSt5mutex4lockEv
DA:65,1
DA:98,4463
DA:100,4463
DA:103,4476
DA:104,0
DA:105,4476
DA:118,4474
DA:229,2990
end_of_record
SF:/usr/include/c++/11/tuple
DA:189,4
DA:199,4
DA:200,4
DA:233,4
DA:290,4
end_of_record
SF:/usr/include/c++/11/bits/stl_iterator.h
DA:1028,1
DA:1054,4
DA:1055,4
DA:1101,4
DA:1271,3
end_of_record
SF:/usr/include/c++/11/bits/unique_ptr.h
FN:355,_ZNSt10unique_ptrINSt6thread6_StateESt14default_deleteIS1_EED2Ev
FNDA:4,_ZNSt10unique_ptrINSt6thread6_StateESt14default_deleteIS1_EED2Ev
DA:85,0
DA:86,0
DA:155,4
DA:355,4
DA:360,4
DA:363,4
end_of_record
SF:/usr/include/c++/11/bits/vector.tcc
FN:109,_ZNSt6vectorISt6threadSaIS0_EE12emplace_backIJM3LFPFviEPS4_RiEEERS0_DpOT_
FNDA:4,_ZNSt6vectorISt6threadSaIS0_EE12emplace_backIJM3LFPFviEPS4_RiEEERS0_DpOT_
FN:426,_ZNSt6vectorISt6threadSaIS0_EE17_M_realloc_insertIJM3LFPFviEPS4_RiEEEvN9__gnu_cxx17__normal_iteratorIPS0_S2_EEDpOT_
FNDA:3,_ZNSt6vectorISt6threadSaIS0_EE17_M_realloc_insertIJM3LFPFviEPS4_RiEEEvN9__gnu_cxx17__normal_iteratorIPS0_S2_EEDpOT_
DA:109,4
DA:112,4
DA:117,1
DA:121,3
DA:123,4
DA:426,3
DA:436,3
DA:437,3
DA:438,3
DA:449,3
DA:450,3
DA:464,3
DA:485,0
DA:487,0
DA:493,0
DA:501,3
DA:502,3
DA:503,3
DA:504,3
DA:505,3
end_of_record
SF:/usr/include/c++/11/bits/unique_lock.h
FN:131,_ZNSt11unique_lockISt5mutexE4lockEv
FNDA:1485,_ZNSt11unique_lockISt5mutexE4lockEv
FN:189,_ZNSt11unique_lockISt5mutexE6unlockEv
FNDA:1486,_ZNSt11unique_lockISt5mutexE6unlockEv
DA:66,1485
DA:67,1485
DA:69,1485
DA:70,1486
DA:103,1486
DA:104,1486
DA:131,1485
DA:133,1485
DA:134,0
DA:135,1485
DA:136,0
DA:139,1485
DA:140,1486
DA:142,1486
DA:189,1486
DA:191,1486
DA:192,0
DA:193,1486
DA:196,1485
DA:198,1485
end_of_record
SF:/home/aharonba123/Desktop/H.W/Semester_B/Operating_Systems/Final_project/5_LF/LFP.cpp
FN:4,_ZN3LFPC2Ei
FNDA:1,_ZN3LFPC2Ei
FN:13,_ZN3LFPD2Ev
FNDA:1,_ZN3LFPD2Ev
FN:19,_ZN3LFP7addTaskESt8functionIFvvEE
FNDA:2,_ZN3LFP7addTaskESt8functionIFvvEE
FN:29,_ZN3LFP14stopProcessingEv
FNDA:1,_ZN3LFP14stopProcessingEv
FN:54,_ZN3LFP13taskProcessorEi
FNDA:4,_ZN3LFP13taskProcessorEi
FN:64,_ZZN3LFP13taskProcessorEiENKUlvE_clEv
FNDA:1498,_ZZN3LFP13taskProcessorEiENKUlvE_clEv
DA:4,1
DA:6,5
DA:8,4
DA:10,1
DA:13,1
DA:15,1
DA:16,2
DA:19,2
DA:22,2
DA:24,2
DA:26,2
DA:29,1
DA:33,1
DA:34,1
DA:39,1
DA:40,1
DA:44,5
DA:46,4
DA:48,4
DA:51,1
DA:54,4
DA:61,1485
DA:64,1486
DA:66,1498
DA:67,1498
DA:71,1486
DA:72,1486
DA:73,4
DA:77,1482
DA:79,2
DA:91,2
DA:95,2
end_of_record
SF:/usr/include/c++/11/iostream
end_of_record
SF:/usr/include/c++/11/bits/stl_vector.h
FN:333,_ZNSt12_Vector_baseISt6threadSaIS0_EED2Ev
FNDA:1,_ZNSt12_Vector_baseISt6threadSaIS0_EED2Ev
FN:678,_ZNSt6vectorISt6threadSaIS0_EED2Ev
FNDA:1,_ZNSt6vectorISt6threadSaIS0_EED2Ev
FN:1756,_ZNKSt6vectorISt6threadSaIS0_EE12_M_check_lenEmPKc
FNDA:3,_ZNKSt6vectorISt6threadSaIS0_EE12_M_check_lenEmPKc
DA:97,1
DA:98,1
DA:333,1
DA:335,1
DA:336,1
DA:337,1
DA:346,3
DA:353,4
DA:678,1
DA:680,1
DA:683,1
DA:919,2
DA:1756,3
DA:1758,3
DA:1759,0
DA:1761,3
DA:1762,3
end_of_record
TN:
SF:/home/aharonba123/Desktop/H.W/Semester_B/Operating_Systems/Final_project/5_LF/union_find.cpp
FN:9,_ZN9UnionFindC2Ei
FNDA:1,_ZN9UnionFindC2Ei
FN:18,_ZN9UnionFind11find_parentEi
FNDA:18,_ZN9UnionFind11find_parentEi
FN:24,_ZN9UnionFind5uniteEii
FNDA:6,_ZN9UnionFind5uniteEii
DA:9,1
DA:11,1
DA:12,1
DA:13,1
DA:14,1
DA:16,1
DA:18,18
DA:20,18
DA:21,18
DA:24,6
DA:26,6
DA:27,6
DA:28,6
DA:29,2
DA:31,2
DA:32,2
DA:33,2
DA:34,2
end_of_record
SF:/usr/include/c++/11/ext/new_allocator.h
FN:103,_ZN9__gnu_cxx13new_allocatorIiE8allocateEmPKv
FNDA:2,_ZN9__gnu_cxx13new_allocatorIiE8allocateEmPKv
DA:103,2
DA:111,2
DA:115,0
DA:116,0
DA:117,0
DA:127,2
DA:145,0
end_of_record
SF:/usr/include/c++/11/bits/stl_numeric.h
DA:97,4
DA:99,3
DA:100,3
end_of_record
SF:/usr/include/c++/11/bits/stl_uninitialized.h
FN:595,_ZNSt27__uninitialized_default_n_1ILb1EE18__uninit_default_nIPimEET_S3_T0_
FNDA:1,_ZNSt27__uninitialized_default_n_1ILb1EE18__uninit_default_nIPimEET_S3_T0_
DA:595,1
DA:597,1
DA:602,1
DA:603,1
DA:605,1
DA:640,0
DA:1009,1
DA:1010,1
DA:1011,0
end_of_record
SF:/usr/include/c++/11/bits/stl_vector.h
FN:333,_ZNSt12_Vector_baseIiSaIiEED2Ev
FNDA:1,_ZNSt12_Vector_baseIiSaIiEED2Ev
FN:359,_ZNSt12_Vector_baseIiSaIiEE17_M_create_storageEm
FNDA:1,_ZNSt12_Vector_baseIiSaIiEE17_M_create_storageEm
FN:522,_ZNSt6vectorIiSaIiEEC2EmRKiRKS0_
FNDA:1,_ZNSt6vectorIiSaIiEEC2EmRKiRKS0_
FN:937,_ZNSt6vectorIiSaIiEE6resizeEm
FNDA:1,_ZNSt6vectorIiSaIiEE6resizeEm
FN:1756,_ZNKSt6vectorIiSaIiEE12_M_check_lenEmPKc
FNDA:1,_ZNKSt6vectorIiSaIiEE12_M_check_lenEmPKc
DA:97,2
DA:98,1
DA:111,1
DA:112,1
DA:113,1
DA:277,1
DA:305,1
DA:333,1
DA:335,1
DA:336,1
DA:337,1
DA:346,2
DA:353,2
DA:359,1
DA:361,1
DA:362,1
DA:363,1
DA:364,1
DA:522,1
DA:524,1
DA:525,1
DA:683,1
DA:750,1
DA:919,1
DA:937,1
DA:939,1
DA:940,1
DA:941,0
DA:942,0
DA:943,1
DA:999,1
DA:1000,1
DA:1046,26
DA:1595,1
DA:1596,1
DA:1756,1
DA:1758,1
DA:1759,0
DA:1761,1
DA:1762,1
DA:1769,1
DA:1770,0
DA:1794,0
DA:1798,0
end_of_record
SF:/usr/include/c++/11/bits/vector.tcc
FN:257,_ZNSt6vectorIiSaIiEE14_M_fill_assignEmRKi
FNDA:1,_ZNSt6vectorIiSaIiEE14_M_fill_assignEmRKi
FN:611,_ZNSt6vectorIiSaIiEE17_M_default_appendEm
FNDA:1,_ZNSt6vectorIiSaIiEE17_M_default_appendEm
DA:257,1
DA:260,1
DA:262,1
DA:265,0
DA:268,0
DA:270,0
DA:277,1
DA:611,1
DA:614,1
DA:617,1
DA:618,1
DA:620,1
DA:621,0
DA:623,1
DA:626,0
DA:634,1
DA:640,2
DA:648,1
DA:676,1
DA:677,1
DA:678,1
DA:679,1
DA:680,1
DA:683,1
end_of_record
SF:/usr/include/c++/11/bits/stl_iterator.h
DA:1028,1
DA:1054,3
DA:1055,3
end_of_record
SF:/usr/include/c++/11/bits/stl_algobase.h
DA:259,1
DA:260,1
DA:922,1
DA:923,7
DA:924,5
DA:1115,2
DA:1120,2
end_of_record
SF:/usr/include/c++/11/bits/alloc_traits.h
DA:464,2
DA:496,0
end_of_record
TN:
SF:/home/aharonba123/Desktop/H.W/Semester_B/Operating_Systems/Final_project/5_LF/Tree.hpp
end_of_record
SF:/usr/include/c++/11/bits/unordered_map.h
DA:102,0
DA:181,4
end_of_record
SF:/home/aharonba123/Desktop/H.W/Semester_B/Operating_Systems/Final_project/5_LF/union_find.hpp
DA:9,1
end_of_record
SF:/usr/include/c++/11/bits/stl_uninitialized.h
DA:91,10
DA:1031,5
end_of_record
SF:/usr/include/c++/11/bits/functional_hash.h
DA:154,12
end_of_record
SF:/home/aharonba123/Desktop/H.W/Semester_B/Operating_Systems/Final_project/5_LF/KruskalSolver.cpp
FN:6,_ZN13KruskalSolver10computeMSTERKSt6vectorISt5tupleIJiiiiEESaIS2_EEi
FNDA:1,_ZN13KruskalSolver10computeMSTERKSt6vectorISt5tupleIJiiiiEESaIS2_EEi
DA:6,1
DA:9,1
DA:11,1
DA:14,1
DA:16,13
DA:19,7
DA:21,6
DA:23,2
DA:28,1
DA:33,1
DA:34,1
DA:35,1
DA:37,3
DA:38,1
end_of_record
SF:/usr/include/c++/11/ext/aligned_buffer.h
DA:104,12
end_of_record
SF:/usr/include/c++/11/bits/stl_pair.h
DA:314,3
end_of_record
SF:/usr/include/c++/11/bits/hashtable_policy.h
FN:1870,_ZNSt8__detail16_Hashtable_allocISaINS_10_Hash_nodeISt4pairIKiiELb0EEEEE16_M_allocate_nodeIJRKS4_EEEPS5_DpOT_
FNDA:9,_ZNSt8__detail16_Hashtable_allocISaINS_10_Hash_nodeISt4pairIKiiELb0EEEEE16_M_allocate_nodeIJRKS4_EEEPS5_DpOT_
FN:1870,_ZNSt8__detail16_Hashtable_allocISaINS_10_Hash_nodeISt4pairIKiSt13unordered_mapIiiSt4hashIiESt8equal_toIiESaIS2_IS3_iEEEELb0EEEEE16_M_allocate_nodeIJRKSC_EEEPSD_DpOT_
FNDA:3,_ZNSt8__detail16_Hashtable_allocISaINS_10_Hash_nodeISt4pairIKiSt13unordered_mapIiiSt4hashIiESt8equal_toIiESaIS2_IS3_iEEEELb0EEEEE16_M_allocate_nodeIJRKSC_EEEPSD_DpOT_
FN:1892,_ZNSt8__detail16_Hashtable_allocISaINS_10_Hash_nodeISt4pairIKiSt13unordered_mapIiiSt4hashIiESt8equal_toIiESaIS2_IS3_iEEEELb0EEEEE18_M_deallocate_nodeEPSD_
FNDA:0,_ZNSt8__detail16_Hashtable_allocISaINS_10_Hash_nodeISt4pairIKiSt13unordered_mapIiiSt4hashIiESt8equal_toIiESaIS2_IS3_iEEEELb0EEEEE18_M_deallocate_nodeEPSD_
FN:1922,_ZNSt8__detail16_Hashtable_allocISaINS_10_Hash_nodeISt4pairIKiiELb0EEEEE19_M_allocate_bucketsEm
FNDA:3,_ZNSt8__detail16_Hashtable_allocISaINS_10_Hash_nodeISt4pairIKiiELb0EEEEE19_M_allocate_bucketsEm
FN:1922,_ZNSt8__detail16_Hashtable_allocISaINS_10_Hash_nodeISt4pairIKiSt13unordered_mapIiiSt4hashIiESt8equal_toIiESaIS2_IS3_iEEEELb0EEEEE19_M_allocate_bucketsEm
FNDA:1,_ZNSt8__detail16_Hashtable_allocISaINS_10_Hash_nodeISt4pairIKiSt13unordered_mapIiiSt4hashIiESt8equal_toIiESaIS2_IS3_iEEEELb0EEEEE19_M_allocate_bucketsEm
DA:162,4
DA:163,4
DA:168,12
DA:219,7
DA:283,12
DA:430,12
DA:1219,12
DA:1870,9
DA:1881,9
DA:1870,3
DA:1881,3
DA:1883,0
DA:1886,0
DA:1892,0
DA:1896,0
DA:1904,0
DA:1912,0
DA:1916,0
DA:1922,3
DA:1929,3
DA:1930,3
DA:1922,1
DA:1929,1
DA:1930,1
DA:1943,1
end_of_record
SF:/usr/include/c++/11/bits/move.h
DA:204,0
DA:205,0
DA:206,0
end_of_record
SF:/usr/include/c++/11/ext/new_allocator.h
FN:103,_ZN9__gnu_cxx13new_allocatorINSt8__detail10_Hash_nodeISt4pairIKiiELb0EEEE8allocateEmPKv
FNDA:9,_ZN9__gnu_cxx13new_allocatorINSt8__detail10_Hash_nodeISt4pairIKiiELb0EEEE8allocateEmPKv
FN:103,_ZN9__gnu_cxx13new_allocatorINSt8__detail10_Hash_nodeISt4pairIKiSt13unordered_mapIiiSt4hashIiESt8equal_toIiESaIS3_IS4_iEEEELb0EEEE8allocateEmPKv
FNDA:3,_ZN9__gnu_cxx13new_allocatorINSt8__detail10_Hash_nodeISt4pairIKiSt13unordered_mapIiiSt4hashIiESt8equal_toIiESaIS3_IS4_iEEEELb0EEEE8allocateEmPKv
FN:103,_ZN9__gnu_cxx13new_allocatorIPNSt8__detail15_Hash_node_baseEE8allocateEmPKv
FNDA:4,_ZN9__gnu_cxx13new_allocatorIPNSt8__detail15_Hash_node_baseEE8allocateEmPKv
FN:103,_ZN9__gnu_cxx13new_allocatorISt5tupleIJiiiiEEE8allocateEmPKv
FNDA:4,_ZN9__gnu_cxx13new_allocatorISt5tupleIJiiiiEEE8allocateEmPKv
DA:103,9
DA:111,9
DA:115,0
DA:116,0
DA:117,0
DA:127,9
DA:103,3
DA:111,3
DA:115,0
DA:116,0
DA:117,0
DA:127,3
DA:103,4
DA:111,4
DA:115,0
DA:116,0
DA:117,0
DA:127,4
DA:103,4
DA:111,4
DA:115,0
DA:116,0
DA:117,0
DA:127,4
DA:145,7
DA:168,1
end_of_record
SF:/usr/include/c++/11/bits/stl_algo.h
FN:79,_ZSt22__move_median_to_firstIN9__gnu_cxx17__normal_iteratorIPSt5tupleIJiiiiEESt6vectorIS3_SaIS3_EEEENS0_5__ops15_Iter_comp_iterIZN13KruskalSolver10computeMSTERKS7_iEUlRKT_RKT0_E_EEEvSE_SE_SE_SE_SH_
FNDA:0,_ZSt22__move_median_to_firstIN9__gnu_cxx17__normal_iteratorIPSt5tupleIJiiiiEESt6vectorIS3_SaIS3_EEEENS0_5__ops15_Iter_comp_iterIZN13KruskalSolver10computeMSTERKS7_iEUlRKT_RKT0_E_EEEvSE_SE_SE_SE_SH_
FN:1642,_ZSt13__heap_selectIN9__gnu_cxx17__normal_iteratorIPSt5tupleIJiiiiEESt6vectorIS3_SaIS3_EEEENS0_5__ops15_Iter_comp_iterIZN13KruskalSolver10computeMSTERKS7_iEUlRKT_RKT0_E_EEEvSE_SE_SE_SH_
FNDA:0,_ZSt13__heap_selectIN9__gnu_cxx17__normal_iteratorIPSt5tupleIJiiiiEESt6vectorIS3_SaIS3_EEEENS0_5__ops15_Iter_comp_iterIZN13KruskalSolver10computeMSTERKS7_iEUlRKT_RKT0_E_EEEvSE_SE_SE_SH_
FN:1799,_ZSt25__unguarded_linear_insertIN9__gnu_cxx17__normal_iteratorIPSt5tupleIJiiiiEESt6vectorIS3_SaIS3_EEEENS0_5__ops14_Val_comp_iterIZN13KruskalSolver10computeMSTERKS7_iEUlRKT_RKT0_E_EEEvSE_SH_
FNDA:4,_ZSt25__unguarded_linear_insertIN9__gnu_cxx17__normal_iteratorIPSt5tupleIJiiiiEESt6vectorIS3_SaIS3_EEEENS0_5__ops14_Val_comp_iterIZN13KruskalSolver10computeMSTERKS7_iEUlRKT_RKT0_E_EEEvSE_SH_
FN:1819,_ZSt16__insertion_sortIN9__gnu_cxx17__normal_iteratorIPSt5tupleIJiiiiEESt6vectorIS3_SaIS3_EEEENS0_5__ops15_Iter_comp_iterIZN13KruskalSolver10computeMSTERKS7_iEUlRKT_RKT0_E_EEEvSE_SE_SH_
FNDA:1,_ZSt16__insertion_sortIN9__gnu_cxx17__normal_iteratorIPSt5tupleIJiiiiEESt6vectorIS3_SaIS3_EEEENS0_5__ops15_Iter_comp_iterIZN13KruskalSolver10computeMSTERKS7_iEUlRKT_RKT0_E_EEEvSE_SE_SH_
FN:1861,_ZSt22__final_insertion_sortIN9__gnu_cxx17__normal_iteratorIPSt5tupleIJiiiiEESt6vectorIS3_SaIS3_EEEENS0_5__ops15_Iter_comp_iterIZN13KruskalSolver10computeMSTERKS7_iEUlRKT_RKT0_E_EEEvSE_SE_SH_
FNDA:1,_ZSt22__final_insertion_sortIN9__gnu_cxx17__normal_iteratorIPSt5tupleIJiiiiEESt6vectorIS3_SaIS3_EEEENS0_5__ops15_Iter_comp_iterIZN13KruskalSolver10computeMSTERKS7_iEUlRKT_RKT0_E_EEEvSE_SE_SH_
FN:1878,_ZSt21__unguarded_partitionIN9__gnu_cxx17__normal_iteratorIPSt5tupleIJiiiiEESt6vectorIS3_SaIS3_EEEENS0_5__ops15_Iter_comp_iterIZN13KruskalSolver10computeMSTERKS7_iEUlRKT_RKT0_E_EEESE_SE_SE_SE_SH_
FNDA:0,_ZSt21__unguarded_partitionIN9__gnu_cxx17__normal_iteratorIPSt5tupleIJiiiiEESt6vectorIS3_SaIS3_EEEENS0_5__ops15_Iter_comp_iterIZN13KruskalSolver10computeMSTERKS7_iEUlRKT_RKT0_E_EEESE_SE_SE_SE_SH_
FN:1900,_ZSt27__unguarded_partition_pivotIN9__gnu_cxx17__normal_iteratorIPSt5tupleIJiiiiEESt6vectorIS3_SaIS3_EEEENS0_5__ops15_Iter_comp_iterIZN13KruskalSolver10computeMSTERKS7_iEUlRKT_RKT0_E_EEESE_SE_SE_SH_
FNDA:0,_ZSt27__unguarded_partition_pivotIN9__gnu_cxx17__normal_iteratorIPSt5tupleIJiiiiEESt6vectorIS3_SaIS3_EEEENS0_5__ops15_Iter_comp_iterIZN13KruskalSolver10computeMSTERKS7_iEUlRKT_RKT0_E_EEESE_SE_SE_SH_
FN:1912,_ZSt14__partial_sortIN9__gnu_cxx17__normal_iteratorIPSt5tupleIJiiiiEESt6vectorIS3_SaIS3_EEEENS0_5__ops15_Iter_comp_iterIZN13KruskalSolver10computeMSTERKS7_iEUlRKT_RKT0_E_EEEvSE_SE_SE_SH_
FNDA:0,_ZSt14__partial_sortIN9__gnu_cxx17__normal_iteratorIPSt5tupleIJiiiiEESt6vectorIS3_SaIS3_EEEENS0_5__ops15_Iter_comp_iterIZN13KruskalSolver10computeMSTERKS7_iEUlRKT_RKT0_E_EEEvSE_SE_SE_SH_
FN:1925,_ZSt16__introsort_loopIN9__gnu_cxx17__normal_iteratorIPSt5tupleIJiiiiEESt6vectorIS3_SaIS3_EEEElNS0_5__ops15_Iter_comp_iterIZN13KruskalSolver10computeMSTERKS7_iEUlRKT_RKT0_E_EEEvSE_SE_SH_T1_
FNDA:1,_ZSt16__introsort_loopIN9__gnu_cxx17__normal_iteratorIPSt5tupleIJiiiiEESt6vectorIS3_SaIS3_EEEElNS0_5__ops15_Iter_comp_iterIZN13KruskalSolver10computeMSTERKS7_iEUlRKT_RKT0_E_EEEvSE_SE_SH_T1_
FN:1949,_ZSt6__sortIN9__gnu_cxx17__normal_iteratorIPSt5tupleIJiiiiEESt6vectorIS3_SaIS3_EEEENS0_5__ops15_Iter_comp_iterIZN13KruskalSolver10computeMSTERKS7_iEUlRKT_RKT0_E_EEEvSE_SE_SH_
FNDA:1,_ZSt6__sortIN9__gnu_cxx17__normal_iteratorIPSt5tupleIJiiiiEESt6vectorIS3_SaIS3_EEEENS0_5__ops15_Iter_comp_iterIZN13KruskalSolver10computeMSTERKS7_iEUlRKT_RKT0_E_EEEvSE_SE_SH_
DA:79,0
DA:82,0
DA:84,0
DA:85,0
DA:86,0
DA:87,0
DA:89,0
DA:91,0
DA:92,0
DA:93,0
DA:94,0
DA:96,0
DA:97,0
DA:1642,0
DA:1646,0
DA:1647,0
DA:1648,0
DA:1649,0
DA:1650,0
DA:1799,4
DA:1806,8
DA:1813,4
DA:1819,1
DA:1822,1
DA:1824,6
DA:1826,5
DA:1834,4
DA:1846,0
DA:1847,0
DA:1861,1
DA:1864,1
DA:1866,0
DA:1871,1
DA:1872,1
DA:1878,0
DA:1884,0
DA:1887,0
DA:1889,0
DA:1890,0
DA:1891,0
DA:1900,0
DA:1903,0
DA:1904,0
DA:1906,0
DA:1912,0
DA:1917,0
DA:1918,0
DA:1919,0
DA:1925,1
DA:1929,1
DA:1931,0
DA:1933,0
DA:1934,0
DA:1936,0
DA:1938,0
DA:1939,0
DA:1940,0
DA:1949,1
DA:1952,1
DA:1954,1
DA:1957,1
DA:1959,1
DA:4875,1
end_of_record
SF:/usr/include/c++/11/bits/alloc_traits.h
DA:464,20
DA:496,6
DA:520,3
end_of_record
SF:/usr/include/c++/11/bits/stl_algobase.h
FN:152,_ZSt9iter_swapIN9__gnu_cxx17__normal_iteratorIPSt5tupleIJiiiiEESt6vectorIS3_SaIS3_EEEES8_EvT_T0_
FNDA:0,_ZSt9iter_swapIN9__gnu_cxx17__normal_iteratorIPSt5tupleIJiiiiEESt6vectorIS3_SaIS3_EEEES8_EvT_T0_
FN:714,_ZNSt20__copy_move_backwardILb1ELb0ESt26random_access_iterator_tagE13__copy_move_bIPSt5tupleIJiiiiEES5_EET0_T_S7_S6_
FNDA:1,_ZNSt20__copy_move_backwardILb1ELb0ESt26random_access_iterator_tagE13__copy_move_bIPSt5tupleIJiiiiEES5_EET0_T_S7_S6_
DA:152,0
DA:184,0
DA:259,2
DA:260,1
DA:714,1
DA:717,1
DA:718,5
DA:719,4
DA:720,1
DA:760,1
DA:1515,1
end_of_record
SF:/usr/include/c++/11/tuple
DA:192,2
DA:193,2
DA:236,6
DA:283,2
DA:301,6
DA:397,13
DA:454,1
DA:456,6
DA:538,9
end_of_record
SF:/usr/include/c++/11/bits/stl_heap.h
FN:134,_ZSt11__push_heapIN9__gnu_cxx17__normal_iteratorIPSt5tupleIJiiiiEESt6vectorIS3_SaIS3_EEEElS3_NS0_5__ops14_Iter_comp_valIZN13KruskalSolver10computeMSTERKS7_iEUlRKT_RKT0_E_EEEvSE_SH_SH_T1_RT2_
FNDA:0,_ZSt11__push_heapIN9__gnu_cxx17__normal_iteratorIPSt5tupleIJiiiiEESt6vectorIS3_SaIS3_EEEElS3_NS0_5__ops14_Iter_comp_valIZN13KruskalSolver10computeMSTERKS7_iEUlRKT_RKT0_E_EEEvSE_SH_SH_T1_RT2_
FN:223,_ZSt13__adjust_heapIN9__gnu_cxx17__normal_iteratorIPSt5tupleIJiiiiEESt6vectorIS3_SaIS3_EEEElS3_NS0_5__ops15_Iter_comp_iterIZN13KruskalSolver10computeMSTERKS7_iEUlRKT_RKT0_E_EEEvSE_SH_SH_T1_T2_
FNDA:0,_ZSt13__adjust_heapIN9__gnu_cxx17__normal_iteratorIPSt5tupleIJiiiiEESt6vectorIS3_SaIS3_EEEElS3_NS0_5__ops15_Iter_comp_iterIZN13KruskalSolver10computeMSTERKS7_iEUlRKT_RKT0_E_EEEvSE_SH_SH_T1_T2_
FN:253,_ZSt10__pop_heapIN9__gnu_cxx17__normal_iteratorIPSt5tupleIJiiiiEESt6vectorIS3_SaIS3_EEEENS0_5__ops15_Iter_comp_iterIZN13KruskalSolver10computeMSTERKS7_iEUlRKT_RKT0_E_EEEvSE_SE_SE_RSH_
FNDA:0,_ZSt10__pop_heapIN9__gnu_cxx17__normal_iteratorIPSt5tupleIJiiiiEESt6vectorIS3_SaIS3_EEEENS0_5__ops15_Iter_comp_iterIZN13KruskalSolver10computeMSTERKS7_iEUlRKT_RKT0_E_EEEvSE_SE_SE_RSH_
FN:339,_ZSt11__make_heapIN9__gnu_cxx17__normal_iteratorIPSt5tupleIJiiiiEESt6vectorIS3_SaIS3_EEEENS0_5__ops15_Iter_comp_iterIZN13KruskalSolver10computeMSTERKS7_iEUlRKT_RKT0_E_EEEvSE_SE_RSH_
FNDA:0,_ZSt11__make_heapIN9__gnu_cxx17__normal_iteratorIPSt5tupleIJiiiiEESt6vectorIS3_SaIS3_EEEENS0_5__ops15_Iter_comp_iterIZN13KruskalSolver10computeMSTERKS7_iEUlRKT_RKT0_E_EEEvSE_SE_RSH_
FN:418,_ZSt11__sort_heapIN9__gnu_cxx17__normal_iteratorIPSt5tupleIJiiiiEESt6vectorIS3_SaIS3_EEEENS0_5__ops15_Iter_comp_iterIZN13KruskalSolver10computeMSTERKS7_iEUlRKT_RKT0_E_EEEvSE_SE_RSH_
FNDA:0,_ZSt11__sort_heapIN9__gnu_cxx17__normal_iteratorIPSt5tupleIJiiiiEESt6vectorIS3_SaIS3_EEEENS0_5__ops15_Iter_comp_iterIZN13KruskalSolver10computeMSTERKS7_iEUlRKT_RKT0_E_EEEvSE_SE_RSH_
DA:134,0
DA:138,0
DA:139,0
DA:143,0
DA:146,0
DA:223,0
DA:228,0
DA:230,0
DA:231,0
DA:237,0
DA:239,0
DA:240,0
DA:246,0
DA:248,0
DA:253,0
DA:263,0
DA:266,0
DA:339,0
DA:347,0
DA:351,0
DA:352,0
DA:355,0
DA:357,0
DA:358,0
DA:359,0
DA:418,0
DA:421,0
DA:424,0
DA:426,0
end_of_record
SF:/usr/include/c++/11/bits/vector.tcc
FN:109,_ZNSt6vectorISt5tupleIJiiiiEESaIS1_EE12emplace_backIJRKiS6_S6_S6_EEERS1_DpOT_
FNDA:2,_ZNSt6vectorISt5tupleIJiiiiEESaIS1_EE12emplace_backIJRKiS6_S6_S6_EEERS1_DpOT_
FN:426,_ZNSt6vectorISt5tupleIJiiiiEESaIS1_EE17_M_realloc_insertIJRKiS6_S6_S6_EEEvN9__gnu_cxx17__normal_iteratorIPS1_S3_EEDpOT_
FNDA:2,_ZNSt6vectorISt5tupleIJiiiiEESaIS1_EE17_M_realloc_insertIJRKiS6_S6_S6_EEEvN9__gnu_cxx17__normal_iteratorIPS1_S3_EEDpOT_
DA:109,2
DA:112,2
DA:117,0
DA:121,2
DA:123,2
DA:426,2
DA:436,2
DA:437,2
DA:438,2
DA:449,2
DA:450,2
DA:464,2
DA:501,2
DA:502,2
DA:503,2
DA:504,2
DA:505,2
end_of_record
SF:/usr/include/c++/11/bits/stl_iterator.h
DA:1028,3
DA:1043,0
DA:1054,8
DA:1055,11
DA:1068,0
DA:1069,8
DA:1091,2
DA:1101,0
DA:1198,0
DA:1271,5
end_of_record
SF:/home/aharonba123/Desktop/H.W/Semester_B/Operating_Systems/Final_project/5_LF/KruskalSolver.hpp
end_of_record
SF:/usr/include/c++/11/bits/stl_vector.h
FN:333,_ZNSt12_Vector_baseIiSaIiEED2Ev
FNDA:2,_ZNSt12_Vector_baseIiSaIiEED2Ev
FN:333,_ZNSt12_Vector_baseISt5tupleIJiiiiEESaIS1_EED2Ev
FNDA:3,_ZNSt12_Vector_baseISt5tupleIJiiiiEESaIS1_EED2Ev
FN:359,_ZNSt12_Vector_baseISt5tupleIJiiiiEESaIS1_EE17_M_create_storageEm
FNDA:2,_ZNSt12_Vector_baseISt5tupleIJiiiiEESaIS1_EE17_M_create_storageEm
FN:553,_ZNSt6vectorISt5tupleIJiiiiEESaIS1_EEC2ERKS3_
FNDA:2,_ZNSt6vectorISt5tupleIJiiiiEESaIS1_EEC2ERKS3_
FN:1756,_ZNKSt6vectorISt5tupleIJiiiiEESaIS1_EE12_M_check_lenEmPKc
FNDA:2,_ZNKSt6vectorISt5tupleIJiiiiEESaIS1_EE12_M_check_lenEmPKc
DA:97,3
DA:98,1
DA:305,2
DA:333,2
DA:335,2
DA:336,2
DA:337,2
DA:333,3
DA:335,3
DA:336,3
DA:337,3
DA:346,4
DA:353,7
DA:359,2
DA:361,2
DA:362,2
DA:363,2
DA:364,2
DA:553,2
DA:555,2
DA:557,2
DA:558,2
DA:561,2
DA:683,1
DA:919,2
DA:1756,2
DA:1758,2
DA:1759,0
DA:1761,2
DA:1762,2
end_of_record
SF:/usr/include/c++/11/bits/hashtable.h
FN:407,_ZNSt10_HashtableIiSt4pairIKiiESaIS2_ENSt8__detail10_Select1stESt8equal_toIiESt4hashIiENS4_18_Mod_range_hashingENS4_20_Default_ranged_hashENS4_20_Prime_rehash_policyENS4_17_Hashtable_traitsILb0ELb0ELb1EEEE16_M_update_bbeginEv
FNDA:3,_ZNSt10_HashtableIiSt4pairIKiiESaIS2_ENSt8__detail10_Select1stESt8equal_toIiESt4hashIiENS4_18_Mod_range_hashingENS4_20_Default_ranged_hashENS4_20_Prime_rehash_policyENS4_17_Hashtable_traitsILb0ELb0ELb1EEEE16_M_update_bbeginEv
FN:407,_ZNSt10_HashtableIiSt4pairIKiSt13unordered_mapIiiSt4hashIiESt8equal_toIiESaIS0_IS1_iEEEESaISA_ENSt8__detail10_Select1stES6_S4_NSC_18_Mod_range_hashingENSC_20_Default_ranged_hashENSC_20_Prime_rehash_policyENSC_17_Hashtable_traitsILb0ELb0ELb1EEEE16_M_update_bbeginEv
FNDA:1,_ZNSt10_HashtableIiSt4pairIKiSt13unordered_mapIiiSt4hashIiESt8equal_toIiESaIS0_IS1_iEEEESaISA_ENSt8__detail10_Select1stES6_S4_NSC_18_Mod_range_hashingENSC_20_Default_ranged_hashENSC_20_Prime_rehash_policyENSC_17_Hashtable_traitsILb0ELb0ELb1EEEE16_M_update_bbeginEv
FN:453,_ZNSt10_HashtableIiSt4pairIKiiESaIS2_ENSt8__detail10_Select1stESt8equal_toIiESt4hashIiENS4_18_Mod_range_hashingENS4_20_Default_ranged_hashENS4_20_Prime_rehash_policyENS4_17_Hashtable_traitsILb0ELb0ELb1EEEE21_M_deallocate_bucketsEv
FNDA:0,_ZNSt10_HashtableIiSt4pairIKiiESaIS2_ENSt8__detail10_Select1stESt8equal_toIiESt4hashIiENS4_18_Mod_range_hashingENS4_20_Default_ranged_hashENS4_20_Prime_rehash_policyENS4_17_Hashtable_traitsILb0ELb0ELb1EEEE21_M_deallocate_bucketsEv
FN:453,_ZNSt10_HashtableIiSt4pairIKiSt13unordered_mapIiiSt4hashIiESt8equal_toIiESaIS0_IS1_iEEEESaISA_ENSt8__detail10_Select1stES6_S4_NSC_18_Mod_range_hashingENSC_20_Default_ranged_hashENSC_20_Prime_rehash_policyENSC_17_Hashtable_traitsILb0ELb0ELb1EEEE21_M_deallocate_bucketsEv
FNDA:1,_ZNSt10_HashtableIiSt4pairIKiSt13unordered_mapIiiSt4hashIiESt8equal_toIiESaIS0_IS1_iEEEESaISA_ENSt8__detail10_Select1stES6_S4_NSC_18_Mod_range_hashingENSC_20_Default_ranged_hashENSC_20_Prime_rehash_policyENSC_17_Hashtable_traitsILb0ELb0ELb1EEEE21_M_deallocate_bucketsEv
FN:1289,_ZNSt10_HashtableIiSt4pairIKiiESaIS2_ENSt8__detail10_Select1stESt8equal_toIiESt4hashIiENS4_18_Mod_range_hashingENS4_20_Default_ranged_hashENS4_20_Prime_rehash_policyENS4_17_Hashtable_traitsILb0ELb0ELb1EEEE9_M_assignIRKSF_NS4_10_AllocNodeISaINS4_10_Hash_nodeIS2_Lb0EEEEEEEEvOT_RKT0_
FNDA:3,_ZNSt10_HashtableIiSt4pairIKiiESaIS2_ENSt8__detail10_Select1stESt8equal_toIiESt4hashIiENS4_18_Mod_range_hashingENS4_20_Default_ranged_hashENS4_20_Prime_rehash_policyENS4_17_Hashtable_traitsILb0ELb0ELb1EEEE9_M_assignIRKSF_NS4_10_AllocNodeISaINS4_10_Hash_nodeIS2_Lb0EEEEEEEEvOT_RKT0_
FN:1289,_ZNSt10_HashtableIiSt4pairIKiSt13unordered_mapIiiSt4hashIiESt8equal_toIiESaIS0_IS1_iEEEESaISA_ENSt8__detail10_Select1stES6_S4_NSC_18_Mod_range_hashingENSC_20_Default_ranged_hashENSC_20_Prime_rehash_policyENSC_17_Hashtable_traitsILb0ELb0ELb1EEEE9_M_assignIRKSJ_NSC_10_AllocNodeISaINSC_10_Hash_nodeISA_Lb0EEEEEEEEvOT_RKT0_
FNDA:1,_ZNSt10_HashtableIiSt4pairIKiSt13unordered_mapIiiSt4hashIiESt8equal_toIiESaIS0_IS1_iEEEESaISA_ENSt8__detail10_Select1stES6_S4_NSC_18_Mod_range_hashingENSC_20_Default_ranged_hashENSC_20_Prime_rehash_policyENSC_17_Hashtable_traitsILb0ELb0ELb1EEEE9_M_assignIRKSJ_NSC_10_AllocNodeISaINSC_10_Hash_nodeISA_Lb0EEEEEEEEvOT_RKT0_
FN:1406,_ZNSt10_HashtableIiSt4pairIKiiESaIS2_ENSt8__detail10_Select1stESt8equal_toIiESt4hashIiENS4_18_Mod_range_hashingENS4_20_Default_ranged_hashENS4_20_Prime_rehash_policyENS4_17_Hashtable_traitsILb0ELb0ELb1EEEEC2ERKSF_
FNDA:3,_ZNSt10_HashtableIiSt4pairIKiiESaIS2_ENSt8__detail10_Select1stESt8equal_toIiESt4hashIiENS4_18_Mod_range_hashingENS4_20_Default_ranged_hashENS4_20_Prime_rehash_policyENS4_17_Hashtable_traitsILb0ELb0ELb1EEEEC2ERKSF_
FN:1406,_ZNSt10_HashtableIiSt4pairIKiSt13unordered_mapIiiSt4hashIiESt8equal_toIiESaIS0_IS1_iEEEESaISA_ENSt8__detail10_Select1stES6_S4_NSC_18_Mod_range_hashingENSC_20_Default_ranged_hashENSC_20_Prime_rehash_policyENSC_17_Hashtable_traitsILb0ELb0ELb1EEEEC2ERKSJ_
FNDA:1,_ZNSt10_HashtableIiSt4pairIKiSt13unordered_mapIiiSt4hashIiESt8equal_toIiESaIS0_IS1_iEEEESaISA_ENSt8__detail10_Select1stES6_S4_NSC_18_Mod_range_hashingENSC_20_Default_ranged_hashENSC_20_Prime_rehash_policyENSC_17_Hashtable_traitsILb0ELb0ELb1EEEEC2ERKSJ_
FN:2316,_ZNSt10_HashtableIiSt4pairIKiiESaIS2_ENSt8__detail10_Select1stESt8equal_toIiESt4hashIiENS4_18_Mod_range_hashingENS4_20_Default_ranged_hashENS4_20_Prime_rehash_policyENS4_17_Hashtable_traitsILb0ELb0ELb1EEEE5clearEv
FNDA:0,_ZNSt10_HashtableIiSt4pairIKiiESaIS2_ENSt8__detail10_Select1stESt8equal_toIiESt4hashIiENS4_18_Mod_range_hashingENS4_20_Default_ranged_hashENS4_20_Prime_rehash_policyENS4_17_Hashtable_traitsILb0ELb0ELb1EEEE5clearEv
FN:2316,_ZNSt10_HashtableIiSt4pairIKiSt13unordered_mapIiiSt4hashIiESt8equal_toIiESaIS0_IS1_iEEEESaISA_ENSt8__detail10_Select1stES6_S4_NSC_18_Mod_range_hashingENSC_20_Default_ranged_hashENSC_20_Prime_rehash_policyENSC_17_Hashtable_traitsILb0ELb0ELb1EEEE5clearEv
FNDA:0,_ZNSt10_HashtableIiSt4pairIKiSt13unordered_mapIiiSt4hashIiESt8equal_toIiESaIS0_IS1_iEEEESaISA_ENSt8__detail10_Select1stES6_S4_NSC_18_Mod_range_hashingENSC_20_Default_ranged_hashENSC_20_Prime_rehash_policyENSC_17_Hashtable_traitsILb0ELb0ELb1EEEE5clearEv
DA:407,3
DA:409,3
DA:410,3
DA:411,3
DA:407,1
DA:409,1
DA:410,1
DA:411,1
DA:416,4
DA:417,4
DA:422,1
DA:434,4
DA:436,0
DA:437,0
DA:440,4
DA:446,1
DA:453,0
DA:454,0
DA:453,1
DA:454,1
DA:463,4
DA:791,4
DA:1289,3
DA:1294,3
DA:1295,6
DA:1299,3
DA:1312,9
DA:1315,6
DA:1318,6
DA:1319,6
DA:1323,0
DA:1325,0
DA:1326,0
DA:1327,0
DA:1328,0
DA:1289,1
DA:1294,1
DA:1295,2
DA:1299,1
DA:1312,3
DA:1315,2
DA:1318,2
DA:1319,2
DA:1323,0
DA:1325,0
DA:1326,0
DA:1327,0
DA:1328,0
DA:1406,3
DA:1415,3
DA:1416,3
DA:1417,3
DA:1418,3
DA:1421,3
DA:1422,3
DA:1406,1
DA:1415,1
DA:1416,1
DA:1417,1
DA:1418,1
DA:1421,1
DA:1422,1
DA:1532,0
DA:1533,0
DA:2316,0
DA:2321,0
DA:2322,0
DA:2323,0
DA:2324,0
DA:2325,0
DA:2316,0
DA:2321,0
DA:2322,0
DA:2323,0
DA:2324,0
DA:2325,0
end_of_record
TN:
SF:/usr/include/c++/11/bits/stl_vector.h
FN:333,_ZNSt12_Vector_baseI4EdgeSaIS0_EED2Ev
FNDA:4,_ZNSt12_Vector_baseI4EdgeSaIS0_EED2Ev
FN:333,_ZNSt12_Vector_baseISt6vectorI4EdgeSaIS1_EESaIS3_EED2Ev
FNDA:1,_ZNSt12_Vector_baseISt6vectorI4EdgeSaIS1_EESaIS3_EED2Ev
FN:333,_ZNSt12_Vector_baseISt5tupleIJiiiiEESaIS1_EED2Ev
FNDA:2,_ZNSt12_Vector_baseISt5tupleIJiiiiEESaIS1_EED2Ev
FN:359,_ZNSt12_Vector_baseISt5tupleIJiiiiEESaIS1_EE17_M_create_storageEm
FNDA:1,_ZNSt12_Vector_baseISt5tupleIJiiiiEESaIS1_EE17_M_create_storageEm
FN:359,_ZNSt12_Vector_baseI4EdgeSaIS0_EE17_M_create_storageEm
FNDA:1,_ZNSt12_Vector_baseI4EdgeSaIS0_EE17_M_create_storageEm
FN:359,_ZNSt12_Vector_baseISt6vectorI4EdgeSaIS1_EESaIS3_EE17_M_create_storageEm
FNDA:1,_ZNSt12_Vector_baseISt6vectorI4EdgeSaIS1_EESaIS3_EE17_M_create_storageEm
FN:510,_ZNSt6vectorIS_I4EdgeSaIS0_EESaIS2_EEC2EmRKS3_
FNDA:1,_ZNSt6vectorIS_I4EdgeSaIS0_EESaIS2_EEC2EmRKS3_
FN:522,_ZNSt6vectorI4EdgeSaIS0_EEC2EmRKS0_RKS1_
FNDA:1,_ZNSt6vectorI4EdgeSaIS0_EEC2EmRKS0_RKS1_
FN:553,_ZNSt6vectorISt5tupleIJiiiiEESaIS1_EEC2ERKS3_
FNDA:1,_ZNSt6vectorISt5tupleIJiiiiEESaIS1_EEC2ERKS3_
FN:678,_ZNSt6vectorIS_I4EdgeSaIS0_EESaIS2_EED2Ev
FNDA:1,_ZNSt6vectorIS_I4EdgeSaIS0_EESaIS2_EED2Ev
FN:1756,_ZNKSt6vectorISt5tupleIJiiiiEESaIS1_EE12_M_check_lenEmPKc
FNDA:0,_ZNKSt6vectorISt5tupleIJiiiiEESaIS1_EE12_M_check_lenEmPKc
FN:1756,_ZNKSt6vectorI4EdgeSaIS0_EE12_M_check_lenEmPKc
FNDA:6,_ZNKSt6vectorI4EdgeSaIS0_EE12_M_check_lenEmPKc
DA:97,7
DA:98,3
DA:305,2
DA:333,4
DA:335,4
DA:336,4
DA:337,4
DA:333,1
DA:335,1
DA:336,1
DA:337,1
DA:333,2
DA:335,2
DA:336,2
DA:337,2
DA:346,9
DA:353,13
DA:359,1
DA:361,1
DA:362,1
DA:363,1
DA:364,1
DA:359,1
DA:361,1
DA:362,1
DA:363,1
DA:364,1
DA:359,1
DA:361,1
DA:362,1
DA:363,1
DA:364,1
DA:487,1
DA:510,1
DA:511,1
DA:512,1
DA:522,1
DA:524,1
DA:525,1
DA:553,1
DA:555,1
DA:557,1
DA:558,1
DA:561,1
DA:678,1
DA:680,1
DA:683,6
DA:919,1
DA:1046,15
DA:1595,1
DA:1596,1
DA:1605,1
DA:1606,1
DA:1756,0
DA:1758,0
DA:1759,0
DA:1761,0
DA:1762,0
DA:1756,6
DA:1758,6
DA:1759,0
DA:1761,6
DA:1762,6
DA:1769,2
DA:1770,0
end_of_record
SF:/usr/include/c++/11/bits/hashtable.h
FN:407,_ZNSt10_HashtableIiSt4pairIKiiESaIS2_ENSt8__detail10_Select1stESt8equal_toIiESt4hashIiENS4_18_Mod_range_hashingENS4_20_Default_ranged_hashENS4_20_Prime_rehash_policyENS4_17_Hashtable_traitsILb0ELb0ELb1EEEE16_M_update_bbeginEv
FNDA:3,_ZNSt10_HashtableIiSt4pairIKiiESaIS2_ENSt8__detail10_Select1stESt8equal_toIiESt4hashIiENS4_18_Mod_range_hashingENS4_20_Default_ranged_hashENS4_20_Prime_rehash_policyENS4_17_Hashtable_traitsILb0ELb0ELb1EEEE16_M_update_bbeginEv
FN:407,_ZNSt10_HashtableIiSt4pairIKiSt13unordered_mapIiiSt4hashIiESt8equal_toIiESaIS0_IS1_iEEEESaISA_ENSt8__detail10_Select1stES6_S4_NSC_18_Mod_range_hashingENSC_20_Default_ranged_hashENSC_20_Prime_rehash_policyENSC_17_Hashtable_traitsILb0ELb0ELb1EEEE16_M_update_bbeginEv
FNDA:1,_ZNSt10_HashtableIiSt4pairIKiSt13unordered_mapIiiSt4hashIiESt8equal_toIiESaIS0_IS1_iEEEESaISA_ENSt8__detail10_Select1stES6_S4_NSC_18_Mod_range_hashingENSC_20_Default_ranged_hashENSC_20_Prime_rehash_policyENSC_17_Hashtable_traitsILb0ELb0ELb1EEEE16_M_update_bbeginEv
FN:453,_ZNSt10_HashtableIiSt4pairIKiiESaIS2_ENSt8__detail10_Select1stESt8equal_toIiESt4hashIiENS4_18_Mod_range_hashingENS4_20_Default_ranged_hashENS4_20_Prime_rehash_policyENS4_17_Hashtable_traitsILb0ELb0ELb1EEEE21_M_deallocate_bucketsEv
FNDA:0,_ZNSt10_HashtableIiSt4pairIKiiESaIS2_ENSt8__detail10_Select1stESt8equal_toIiESt4hashIiENS4_18_Mod_range_hashingENS4_20_Default_ranged_hashENS4_20_Prime_rehash_policyENS4_17_Hashtable_traitsILb0ELb0ELb1EEEE21_M_deallocate_bucketsEv
FN:453,_ZNSt10_HashtableIiSt4pairIKiSt13unordered_mapIiiSt4hashIiESt8equal_toIiESaIS0_IS1_iEEEESaISA_ENSt8__detail10_Select1stES6_S4_NSC_18_Mod_range_hashingENSC_20_Default_ranged_hashENSC_20_Prime_rehash_policyENSC_17_Hashtable_traitsILb0ELb0ELb1EEEE21_M_deallocate_bucketsEv
FNDA:1,_ZNSt10_HashtableIiSt4pairIKiSt13unordered_mapIiiSt4hashIiESt8equal_toIiESaIS0_IS1_iEEEESaISA_ENSt8__detail10_Select1stES6_S4_NSC_18_Mod_range_hashingENSC_20_Default_ranged_hashENSC_20_Prime_rehash_policyENSC_17_Hashtable_traitsILb0ELb0ELb1EEEE21_M_deallocate_bucketsEv
FN:1289,_ZNSt10_HashtableIiSt4pairIKiiESaIS2_ENSt8__detail10_Select1stESt8equal_toIiESt4hashIiENS4_18_Mod_range_hashingENS4_20_Default_ranged_hashENS4_20_Prime_rehash_policyENS4_17_Hashtable_traitsILb0ELb0ELb1EEEE9_M_assignIRKSF_NS4_10_AllocNodeISaINS4_10_Hash_nodeIS2_Lb0EEEEEEEEvOT_RKT0_
FNDA:3,_ZNSt10_HashtableIiSt4pairIKiiESaIS2_ENSt8__detail10_Select1stESt8equal_toIiESt4hashIiENS4_18_Mod_range_hashingENS4_20_Default_ranged_hashENS4_20_Prime_rehash_policyENS4_17_Hashtable_traitsILb0ELb0ELb1EEEE9_M_assignIRKSF_NS4_10_AllocNodeISaINS4_10_Hash_nodeIS2_Lb0EEEEEEEEvOT_RKT0_
FN:1289,_ZNSt10_HashtableIiSt4pairIKiSt13unordered_mapIiiSt4hashIiESt8equal_toIiESaIS0_IS1_iEEEESaISA_ENSt8__detail10_Select1stES6_S4_NSC_18_Mod_range_hashingENSC_20_Default_ranged_hashENSC_20_Prime_rehash_policyENSC_17_Hashtable_traitsILb0ELb0ELb1EEEE9_M_assignIRKSJ_NSC_10_AllocNodeISaINSC_10_Hash_nodeISA_Lb0EEEEEEEEvOT_RKT0_
FNDA:1,_ZNSt10_HashtableIiSt4pairIKiSt13unordered_mapIiiSt4hashIiESt8equal_toIiESaIS0_IS1_iEEEESaISA_ENSt8__detail10_Select1stES6_S4_NSC_18_Mod_range_hashingENSC_20_Default_ranged_hashENSC_20_Prime_rehash_policyENSC_17_Hashtable_traitsILb0ELb0ELb1EEEE9_M_assignIRKSJ_NSC_10_AllocNodeISaINSC_10_Hash_nodeISA_Lb0EEEEEEEEvOT_RKT0_
FN:1406,_ZNSt10_HashtableIiSt4pairIKiiESaIS2_ENSt8__detail10_Select1stESt8equal_toIiESt4hashIiENS4_18_Mod_range_hashingENS4_20_Default_ranged_hashENS4_20_Prime_rehash_policyENS4_17_Hashtable_traitsILb0ELb0ELb1EEEEC2ERKSF_
FNDA:3,_ZNSt10_HashtableIiSt4pairIKiiESaIS2_ENSt8__detail10_Select1stESt8equal_toIiESt4hashIiENS4_18_Mod_range_hashingENS4_20_Default_ranged_hashENS4_20_Prime_rehash_policyENS4_17_Hashtable_traitsILb0ELb0ELb1EEEEC2ERKSF_
FN:1406,_ZNSt10_HashtableIiSt4pairIKiSt13unordered_mapIiiSt4hashIiESt8equal_toIiESaIS0_IS1_iEEEESaISA_ENSt8__detail10_Select1stES6_S4_NSC_18_Mod_range_hashingENSC_20_Default_ranged_hashENSC_20_Prime_rehash_policyENSC_17_Hashtable_traitsILb0ELb0ELb1EEEEC2ERKSJ_
FNDA:1,_ZNSt10_HashtableIiSt4pairIKiSt13unordered_mapIiiSt4hashIiESt8equal_toIiESaIS0_IS1_iEEEESaISA_ENSt8__detail10_Select1stES6_S4_NSC_18_Mod_range_hashingENSC_20_Default_ranged_hashENSC_20_Prime_rehash_policyENSC_17_Hashtable_traitsILb0ELb0ELb1EEEEC2ERKSJ_
FN:2316,_ZNSt10_HashtableIiSt4pairIKiiESaIS2_ENSt8__detail10_Select1stESt8equal_toIiESt4hashIiENS4_18_Mod_range_hashingENS4_20_Default_ranged_hashENS4_20_Prime_rehash_policyENS4_17_Hashtable_traitsILb0ELb0ELb1EEEE5clearEv
FNDA:0,_ZNSt10_HashtableIiSt4pairIKiiESaIS2_ENSt8__detail10_Select1stESt8equal_toIiESt4hashIiENS4_18_Mod_range_hashingENS4_20_Default_ranged_hashENS4_20_Prime_rehash_policyENS4_17_Hashtable_traitsILb0ELb0ELb1EEEE5clearEv
FN:2316,_ZNSt10_HashtableIiSt4pairIKiSt13unordered_mapIiiSt4hashIiESt8equal_toIiESaIS0_IS1_iEEEESaISA_ENSt8__detail10_Select1stES6_S4_NSC_18_Mod_range_hashingENSC_20_Default_ranged_hashENSC_20_Prime_rehash_policyENSC_17_Hashtable_traitsILb0ELb0ELb1EEEE5clearEv
FNDA:0,_ZNSt10_HashtableIiSt4pairIKiSt13unordered_mapIiiSt4hashIiESt8equal_toIiESaIS0_IS1_iEEEESaISA_ENSt8__detail10_Select1stES6_S4_NSC_18_Mod_range_hashingENSC_20_Default_ranged_hashENSC_20_Prime_rehash_policyENSC_17_Hashtable_traitsILb0ELb0ELb1EEEE5clearEv
DA:407,3
DA:409,3
DA:410,3
DA:411,3
DA:407,1
DA:409,1
DA:410,1
DA:411,1
DA:416,4
DA:417,4
DA:422,1
DA:434,4
DA:436,0
DA:437,0
DA:440,4
DA:446,1
DA:453,0
DA:454,0
DA:453,1
DA:454,1
DA:463,4
DA:791,4
DA:1289,3
DA:1294,3
DA:1295,6
DA:1299,3
DA:1312,9
DA:1315,6
DA:1318,6
DA:1319,6
DA:1323,0
DA:1325,0
DA:1326,0
DA:1327,0
DA:1328,0
DA:1289,1
DA:1294,1
DA:1295,2
DA:1299,1
DA:1312,3
DA:1315,2
DA:1318,2
DA:1319,2
DA:1323,0
DA:1325,0
DA:1326,0
DA:1327,0
DA:1328,0
DA:1406,3
DA:1415,3
DA:1416,3
DA:1417,3
DA:1418,3
DA:1421,3
DA:1422,3
DA:1406,1
DA:1415,1
DA:1416,1
DA:1417,1
DA:1418,1
DA:1421,1
DA:1422,1
DA:1532,0
DA:1533,0
DA:2316,0
DA:2321,0
DA:2322,0
DA:2323,0
DA:2324,0
DA:2325,0
DA:2316,0
DA:2321,0
DA:2322,0
DA:2323,0
DA:2324,0
DA:2325,0
end_of_record
SF:/usr/include/c++/11/bits/vector.tcc
FN:109,_ZNSt6vectorISt5tupleIJiiiiEESaIS1_EE12emplace_backIJRiS5_S5_S5_EEERS1_DpOT_
FNDA:2,_ZNSt6vectorISt5tupleIJiiiiEESaIS1_EE12emplace_backIJRiS5_S5_S5_EEERS1_DpOT_
FN:109,_ZNSt6vectorI4EdgeSaIS0_EE12emplace_backIJS0_EEERS0_DpOT_
FNDA:6,_ZNSt6vectorI4EdgeSaIS0_EE12emplace_backIJS0_EEERS0_DpOT_
FN:426,_ZNSt6vectorISt5tupleIJiiiiEESaIS1_EE17_M_realloc_insertIJRiS5_S5_S5_EEEvN9__gnu_cxx17__normal_iteratorIPS1_S3_EEDpOT_
FNDA:0,_ZNSt6vectorISt5tupleIJiiiiEESaIS1_EE17_M_realloc_insertIJRiS5_S5_S5_EEEvN9__gnu_cxx17__normal_iteratorIPS1_S3_EEDpOT_
FN:426,_ZNSt6vectorI4EdgeSaIS0_EE17_M_realloc_insertIJS0_EEEvN9__gnu_cxx17__normal_iteratorIPS0_S2_EEDpOT_
FNDA:6,_ZNSt6vectorI4EdgeSaIS0_EE17_M_realloc_insertIJS0_EEEvN9__gnu_cxx17__normal_iteratorIPS0_S2_EEDpOT_
DA:109,2
DA:112,2
DA:117,0
DA:121,2
DA:123,2
DA:109,6
DA:112,6
DA:117,0
DA:121,6
DA:123,6
DA:426,0
DA:436,0
DA:437,0
DA:438,0
DA:449,0
DA:450,0
DA:464,0
DA:501,0
DA:502,0
DA:503,0
DA:504,0
DA:505,0
DA:426,6
DA:436,6
DA:437,6
DA:438,6
DA:449,6
DA:450,6
DA:464,6
DA:501,6
DA:502,6
DA:503,6
DA:504,6
DA:505,6
end_of_record
SF:/usr/include/c++/11/bits/stl_tree.h
FN:528,_ZNKSt8_Rb_treeI4EdgeS0_St9_IdentityIS0_ESt4lessIS0_ESaIS0_EE11_Alloc_nodeclIRKS0_EEPSt13_Rb_tree_nodeIS0_EOT_
FNDA:2,_ZNKSt8_Rb_treeI4EdgeS0_St9_IdentityIS0_ESt4lessIS0_ESaIS0_EE11_Alloc_nodeclIRKS0_EEPSt13_Rb_tree_nodeIS0_EOT_
FN:528,_ZNKSt8_Rb_treeI4EdgeS0_St9_IdentityIS0_ESt4lessIS0_ESaIS0_EE11_Alloc_nodeclIS0_EEPSt13_Rb_tree_nodeIS0_EOT_
FNDA:1,_ZNKSt8_Rb_treeI4EdgeS0_St9_IdentityIS0_ESt4lessIS0_ESaIS0_EE11_Alloc_nodeclIS0_EEPSt13_Rb_tree_nodeIS0_EOT_
FN:1192,_ZNSt8_Rb_treeI4EdgeS0_St9_IdentityIS0_ESt4lessIS0_ESaIS0_EE5eraseB5cxx11ESt23_Rb_tree_const_iteratorIS0_E
FNDA:3,_ZNSt8_Rb_treeI4EdgeS0_St9_IdentityIS0_ESt4lessIS0_ESaIS0_EE5eraseB5cxx11ESt23_Rb_tree_const_iteratorIS0_E
FN:1252,_ZNSt8_Rb_treeI4EdgeS0_St9_IdentityIS0_ESt4lessIS0_ESaIS0_EE5clearEv
FNDA:1,_ZNSt8_Rb_treeI4EdgeS0_St9_IdentityIS0_ESt4lessIS0_ESaIS0_EE5clearEv
FN:1771,_ZNSt8_Rb_treeI4EdgeS0_St9_IdentityIS0_ESt4lessIS0_ESaIS0_EE10_M_insert_IRKS0_NS6_11_Alloc_nodeEEESt17_Rb_tree_iteratorIS0_EPSt18_Rb_tree_node_baseSE_OT_RT0_
FNDA:2,_ZNSt8_Rb_treeI4EdgeS0_St9_IdentityIS0_ESt4lessIS0_ESaIS0_EE10_M_insert_IRKS0_NS6_11_Alloc_nodeEEESt17_Rb_tree_iteratorIS0_EPSt18_Rb_tree_node_baseSE_OT_RT0_
FN:1771,_ZNSt8_Rb_treeI4EdgeS0_St9_IdentityIS0_ESt4lessIS0_ESaIS0_EE10_M_insert_IS0_NS6_11_Alloc_nodeEEESt17_Rb_tree_iteratorIS0_EPSt18_Rb_tree_node_baseSC_OT_RT0_
FNDA:1,_ZNSt8_Rb_treeI4EdgeS0_St9_IdentityIS0_ESt4lessIS0_ESaIS0_EE10_M_insert_IS0_NS6_11_Alloc_nodeEEESt17_Rb_tree_iteratorIS0_EPSt18_Rb_tree_node_baseSC_OT_RT0_
FN:1883,_ZNSt8_Rb_treeI4EdgeS0_St9_IdentityIS0_ESt4lessIS0_ESaIS0_EE8_M_eraseEPSt13_Rb_tree_nodeIS0_E
FNDA:2,_ZNSt8_Rb_treeI4EdgeS0_St9_IdentityIS0_ESt4lessIS0_ESaIS0_EE8_M_eraseEPSt13_Rb_tree_nodeIS0_E
FN:1900,_ZNSt8_Rb_treeI4EdgeS0_St9_IdentityIS0_ESt4lessIS0_ESaIS0_EE14_M_lower_boundEPSt13_Rb_tree_nodeIS0_EPSt18_Rb_tree_node_baseRKS0_
FNDA:0,_ZNSt8_Rb_treeI4EdgeS0_St9_IdentityIS0_ESt4lessIS0_ESaIS0_EE14_M_lower_boundEPSt13_Rb_tree_nodeIS0_EPSt18_Rb_tree_node_baseRKS0_
FN:1932,_ZNSt8_Rb_treeI4EdgeS0_St9_IdentityIS0_ESt4lessIS0_ESaIS0_EE14_M_upper_boundEPSt13_Rb_tree_nodeIS0_EPSt18_Rb_tree_node_baseRKS0_
FNDA:0,_ZNSt8_Rb_treeI4EdgeS0_St9_IdentityIS0_ESt4lessIS0_ESaIS0_EE14_M_upper_boundEPSt13_Rb_tree_nodeIS0_EPSt18_Rb_tree_node_baseRKS0_
FN:1966,_ZNSt8_Rb_treeI4EdgeS0_St9_IdentityIS0_ESt4lessIS0_ESaIS0_EE11equal_rangeERKS0_
FNDA:2,_ZNSt8_Rb_treeI4EdgeS0_St9_IdentityIS0_ESt4lessIS0_ESaIS0_EE11equal_rangeERKS0_
FN:2061,_ZNSt8_Rb_treeI4EdgeS0_St9_IdentityIS0_ESt4lessIS0_ESaIS0_EE24_M_get_insert_unique_posERKS0_
FNDA:3,_ZNSt8_Rb_treeI4EdgeS0_St9_IdentityIS0_ESt4lessIS0_ESaIS0_EE24_M_get_insert_unique_posERKS0_
FN:2115,_ZNSt8_Rb_treeI4EdgeS0_St9_IdentityIS0_ESt4lessIS0_ESaIS0_EE16_M_insert_uniqueIRKS0_EESt4pairISt17_Rb_tree_iteratorIS0_EbEOT_
FNDA:2,_ZNSt8_Rb_treeI4EdgeS0_St9_IdentityIS0_ESt4lessIS0_ESaIS0_EE16_M_insert_uniqueIRKS0_EESt4pairISt17_Rb_tree_iteratorIS0_EbEOT_
FN:2115,_ZNSt8_Rb_treeI4EdgeS0_St9_IdentityIS0_ESt4lessIS0_ESaIS0_EE16_M_insert_uniqueIS0_EESt4pairISt17_Rb_tree_iteratorIS0_EbEOT_
FNDA:1,_ZNSt8_Rb_treeI4EdgeS0_St9_IdentityIS0_ESt4lessIS0_ESaIS0_EE16_M_insert_uniqueIS0_EESt4pairISt17_Rb_tree_iteratorIS0_EbEOT_
FN:2480,_ZNSt8_Rb_treeI4EdgeS0_St9_IdentityIS0_ESt4lessIS0_ESaIS0_EE12_M_erase_auxESt23_Rb_tree_const_iteratorIS0_E
FNDA:3,_ZNSt8_Rb_treeI4EdgeS0_St9_IdentityIS0_ESt4lessIS0_ESaIS0_EE12_M_erase_auxESt23_Rb_tree_const_iteratorIS0_E
FN:2494,_ZNSt8_Rb_treeI4EdgeS0_St9_IdentityIS0_ESt4lessIS0_ESaIS0_EE12_M_erase_auxESt23_Rb_tree_const_iteratorIS0_ES8_
FNDA:2,_ZNSt8_Rb_treeI4EdgeS0_St9_IdentityIS0_ESt4lessIS0_ESaIS0_EE12_M_erase_auxESt23_Rb_tree_const_iteratorIS0_ES8_
FN:2507,_ZNSt8_Rb_treeI4EdgeS0_St9_IdentityIS0_ESt4lessIS0_ESaIS0_EE5eraseERKS0_
FNDA:2,_ZNSt8_Rb_treeI4EdgeS0_St9_IdentityIS0_ESt4lessIS0_ESaIS0_EE5eraseERKS0_
DA:146,1
DA:174,1
DA:175,1
DA:208,2
DA:209,2
DA:210,2
DA:211,2
DA:302,0
DA:303,0
DA:350,2
DA:351,5
DA:368,3
DA:376,0
DA:523,3
DA:524,3
DA:528,2
DA:529,4
DA:528,1
DA:529,2
DA:548,3
DA:624,3
DA:667,1
DA:735,7
DA:750,8
DA:780,1
DA:788,1
DA:984,1
DA:996,5
DA:1000,3
DA:1004,1
DA:1028,4
DA:1032,4
DA:1192,3
DA:1195,3
DA:1197,3
DA:1198,3
DA:1252,1
DA:1254,1
DA:1256,1
DA:1771,2
DA:1780,2
DA:1781,2
DA:1784,2
DA:1786,2
DA:1787,2
DA:1788,2
DA:1789,2
DA:1771,1
DA:1780,1
DA:1781,1
DA:1784,1
DA:1786,1
DA:1787,1
DA:1788,1
DA:1789,1
DA:1883,2
DA:1887,2
DA:1889,0
DA:1894,2
DA:1900,0
DA:1904,0
DA:1909,0
DA:1932,0
DA:1936,0
DA:1941,0
DA:1966,2
DA:1971,3
DA:1984,0
DA:1985,0
DA:1989,2
DA:2061,3
DA:2068,4
DA:2075,3
DA:2077,3
DA:2078,3
DA:2083,0
DA:2084,0
DA:2115,2
DA:2124,2
DA:2126,2
DA:2129,2
DA:2131,2
DA:2134,0
DA:2115,1
DA:2124,1
DA:2126,1
DA:2129,1
DA:2131,1
DA:2134,0
DA:2480,3
DA:2485,3
DA:2486,3
DA:2488,3
DA:2489,3
DA:2494,2
DA:2497,2
DA:2498,1
DA:2500,1
DA:2501,0
DA:2502,2
DA:2507,2
DA:2510,2
DA:2512,2
DA:2513,2
end_of_record
SF:/usr/include/c++/11/bits/stl_set.h
FN:509,_ZNSt3setI4EdgeSt4lessIS0_ESaIS0_EE6insertERKS0_
FNDA:2,_ZNSt3setI4EdgeSt4lessIS0_ESaIS0_EE6insertERKS0_
FN:518,_ZNSt3setI4EdgeSt4lessIS0_ESaIS0_EE6insertEOS0_
FNDA:1,_ZNSt3setI4EdgeSt4lessIS0_ESaIS0_EE6insertEOS0_
DA:281,1
DA:509,2
DA:512,2
DA:513,2
DA:518,1
DA:521,1
DA:522,1
DA:655,3
DA:685,2
end_of_record
SF:/usr/include/c++/11/bits/stl_iterator.h
DA:1028,5
DA:1054,2
DA:1055,12
DA:1101,8
DA:1271,6
end_of_record
SF:/usr/include/c++/11/bits/stl_bvector.h
FN:172,_ZNSt18_Bit_iterator_base7_M_incrEl
FNDA:13,_ZNSt18_Bit_iterator_base7_M_incrEl
FN:299,_ZNKSt13_Bit_iteratorixEl
FNDA:12,_ZNKSt13_Bit_iteratorixEl
FN:553,_ZNSt13_Bvector_baseISaIbEE13_M_deallocateEv
FNDA:1,_ZNSt13_Bvector_baseISaIbEE13_M_deallocateEv
FN:647,_ZNSt6vectorIbSaIbEEC2EmRKbRKS0_
FNDA:1,_ZNSt6vectorIbSaIbEEC2EmRKbRKS0_
FN:1137,_ZNSt6vectorIbSaIbEE13_M_initializeEm
FNDA:1,_ZNSt6vectorIbSaIbEE13_M_initializeEm
FN:1150,_ZNSt6vectorIbSaIbEE19_M_initialize_valueEb
FNDA:1,_ZNSt6vectorIbSaIbEE19_M_initialize_valueEb
DA:87,9
DA:93,3
DA:149,1
DA:172,13
DA:174,13
DA:175,13
DA:176,13
DA:177,13
DA:179,0
DA:180,0
DA:182,13
DA:183,13
DA:252,12
DA:287,13
DA:299,12
DA:300,12
DA:305,12
DA:307,13
DA:443,1
DA:444,1
DA:466,1
DA:504,2
DA:505,2
DA:543,1
DA:550,1
DA:553,1
DA:555,1
DA:557,1
DA:558,1
DA:559,1
DA:563,1
DA:573,1
DA:647,1
DA:654,1
DA:656,1
DA:657,1
DA:658,1
DA:733,1
DA:832,9
DA:907,9
DA:1137,1
DA:1139,1
DA:1142,1
DA:1144,1
DA:1145,1
DA:1147,1
DA:1150,1
DA:1152,1
DA:1153,1
DA:1154,1
DA:1156,1
end_of_record
SF:/usr/include/c++/11/tuple
DA:199,0
DA:200,0
DA:290,0
DA:301,0
DA:454,0
DA:456,0
end_of_record
SF:/usr/include/c++/11/bits/alloc_traits.h
DA:464,29
DA:496,10
DA:520,3
end_of_record
SF:/usr/include/c++/11/bits/stl_algobase.h
DA:259,6
DA:260,3
end_of_record
SF:/usr/include/c++/11/ext/aligned_buffer.h
DA:104,12
end_of_record
SF:/usr/include/c++/11/bits/stl_pair.h
DA:267,3
DA:314,3
DA:353,3
DA:491,3
end_of_record
SF:/usr/include/c++/11/bits/hashtable_policy.h
FN:1870,_ZNSt8__detail16_Hashtable_allocISaINS_10_Hash_nodeISt4pairIKiiELb0EEEEE16_M_allocate_nodeIJRKS4_EEEPS5_DpOT_
FNDA:9,_ZNSt8__detail16_Hashtable_allocISaINS_10_Hash_nodeISt4pairIKiiELb0EEEEE16_M_allocate_nodeIJRKS4_EEEPS5_DpOT_
FN:1870,_ZNSt8__detail16_Hashtable_allocISaINS_10_Hash_nodeISt4pairIKiSt13unordered_mapIiiSt4hashIiESt8equal_toIiESaIS2_IS3_iEEEELb0EEEEE16_M_allocate_nodeIJRKSC_EEEPSD_DpOT_
FNDA:3,_ZNSt8__detail16_Hashtable_allocISaINS_10_Hash_nodeISt4pairIKiSt13unordered_mapIiiSt4hashIiESt8equal_toIiESaIS2_IS3_iEEEELb0EEEEE16_M_allocate_nodeIJRKSC_EEEPSD_DpOT_
FN:1892,_ZNSt8__detail16_Hashtable_allocISaINS_10_Hash_nodeISt4pairIKiSt13unordered_mapIiiSt4hashIiESt8equal_toIiESaIS2_IS3_iEEEELb0EEEEE18_M_deallocate_nodeEPSD_
FNDA:0,_ZNSt8__detail16_Hashtable_allocISaINS_10_Hash_nodeISt4pairIKiSt13unordered_mapIiiSt4hashIiESt8equal_toIiESaIS2_IS3_iEEEELb0EEEEE18_M_deallocate_nodeEPSD_
FN:1922,_ZNSt8__detail16_Hashtable_allocISaINS_10_Hash_nodeISt4pairIKiiELb0EEEEE19_M_allocate_bucketsEm
FNDA:3,_ZNSt8__detail16_Hashtable_allocISaINS_10_Hash_nodeISt4pairIKiiELb0EEEEE19_M_allocate_bucketsEm
FN:1922,_ZNSt8__detail16_Hashtable_allocISaINS_10_Hash_nodeISt4pairIKiSt13unordered_mapIiiSt4hashIiESt8equal_toIiESaIS2_IS3_iEEEELb0EEEEE19_M_allocate_bucketsEm
FNDA:1,_ZNSt8__detail16_Hashtable_allocISaINS_10_Hash_nodeISt4pairIKiSt13unordered_mapIiiSt4hashIiESt8equal_toIiESaIS2_IS3_iEEEELb0EEEEE19_M_allocate_bucketsEm
DA:162,4
DA:163,4
DA:168,12
DA:219,7
DA:283,12
DA:430,12
DA:1219,12
DA:1870,9
DA:1881,9
DA:1870,3
DA:1881,3
DA:1883,0
DA:1886,0
DA:1892,0
DA:1896,0
DA:1904,0
DA:1912,0
DA:1916,0
DA:1922,3
DA:1929,3
DA:1930,3
DA:1922,1
DA:1929,1
DA:1930,1
DA:1943,1
end_of_record
SF:/usr/include/c++/11/ext/new_allocator.h
FN:103,_ZN9__gnu_cxx13new_allocatorINSt8__detail10_Hash_nodeISt4pairIKiiELb0EEEE8allocateEmPKv
FNDA:9,_ZN9__gnu_cxx13new_allocatorINSt8__detail10_Hash_nodeISt4pairIKiiELb0EEEE8allocateEmPKv
FN:103,_ZN9__gnu_cxx13new_allocatorISt13_Rb_tree_nodeI4EdgeEE8allocateEmPKv
FNDA:3,_ZN9__gnu_cxx13new_allocatorISt13_Rb_tree_nodeI4EdgeEE8allocateEmPKv
FN:103,_ZN9__gnu_cxx13new_allocatorINSt8__detail10_Hash_nodeISt4pairIKiSt13unordered_mapIiiSt4hashIiESt8equal_toIiESaIS3_IS4_iEEEELb0EEEE8allocateEmPKv
FNDA:3,_ZN9__gnu_cxx13new_allocatorINSt8__detail10_Hash_nodeISt4pairIKiSt13unordered_mapIiiSt4hashIiESt8equal_toIiESaIS3_IS4_iEEEELb0EEEE8allocateEmPKv
FN:103,_ZN9__gnu_cxx13new_allocatorIPNSt8__detail15_Hash_node_baseEE8allocateEmPKv
FNDA:4,_ZN9__gnu_cxx13new_allocatorIPNSt8__detail15_Hash_node_baseEE8allocateEmPKv
FN:103,_ZN9__gnu_cxx13new_allocatorISt6vectorI4EdgeSaIS2_EEE8allocateEmPKv
FNDA:1,_ZN9__gnu_cxx13new_allocatorISt6vectorI4EdgeSaIS2_EEE8allocateEmPKv
FN:103,_ZN9__gnu_cxx13new_allocatorISt5tupleIJiiiiEEE8allocateEmPKv
FNDA:1,_ZN9__gnu_cxx13new_allocatorISt5tupleIJiiiiEEE8allocateEmPKv
FN:103,_ZN9__gnu_cxx13new_allocatorImE8allocateEmPKv
FNDA:1,_ZN9__gnu_cxx13new_allocatorImE8allocateEmPKv
FN:103,_ZN9__gnu_cxx13new_allocatorI4EdgeE8allocateEmPKv
FNDA:7,_ZN9__gnu_cxx13new_allocatorI4EdgeE8allocateEmPKv
DA:103,9
DA:111,9
DA:115,0
DA:116,0
DA:117,0
DA:127,9
DA:103,3
DA:111,3
DA:115,0
DA:116,0
DA:117,0
DA:127,3
DA:103,3
DA:111,3
DA:115,0
DA:116,0
DA:117,0
DA:127,3
DA:103,4
DA:111,4
DA:115,0
DA:116,0
DA:117,0
DA:127,4
DA:103,1
DA:111,1
DA:115,0
DA:116,0
DA:117,0
DA:127,1
DA:103,1
DA:111,1
DA:115,0
DA:116,0
DA:117,0
DA:127,1
DA:103,1
DA:111,1
DA:115,0
DA:116,0
DA:117,0
DA:127,1
DA:103,7
DA:111,7
DA:115,0
DA:116,0
DA:117,0
DA:127,7
DA:145,15
DA:168,3
end_of_record
SF:/usr/include/c++/11/bits/functional_hash.h
DA:154,12
end_of_record
SF:/usr/include/c++/11/bits/stl_uninitialized.h
DA:91,3
DA:236,4
DA:578,4
DA:1031,15
end_of_record
SF:/usr/include/c++/11/bits/stl_construct.h
DA:162,4
end_of_record
SF:/home/aharonba123/Desktop/H.W/Semester_B/Operating_Systems/Final_project/5_LF/PrimSolver.cpp
FN:23,_ZN10PrimSolver10computeMSTERKSt6vectorISt5tupleIJiiiiEESaIS2_EEi
FNDA:1,_ZN10PrimSolver10computeMSTERKSt6vectorISt5tupleIJiiiiEESaIS2_EEi
DA:19,6
DA:23,1
DA:26,1
DA:27,7
DA:29,6
DA:33,1
DA:34,1
DA:36,1
DA:37,1
DA:41,4
DA:43,3
DA:44,3
DA:45,3
DA:47,3
DA:48,0
DA:52,3
DA:54,2
DA:57,9
DA:59,6
DA:62,2
DA:63,2
DA:69,1
DA:74,1
DA:75,1
DA:76,1
DA:77,3
DA:78,2
end_of_record
SF:/home/aharonba123/Desktop/H.W/Semester_B/Operating_Systems/Final_project/5_LF/Tree.hpp
end_of_record
SF:/usr/include/c++/11/bits/unordered_map.h
DA:102,0
DA:181,4
end_of_record
SF:/home/aharonba123/Desktop/H.W/Semester_B/Operating_Systems/Final_project/5_LF/PrimSolver.hpp
end_of_record
