TN:
SF:/home/aharonba123/Desktop/H.W/Semester_B/Operating_Systems/Final_project/5_pipeline/Tree.cpp
FN:9,_ZN4TreeC2ERKSt6vectorISt5tupleIJiiiiEESaIS2_EE
FNDA:2,_ZN4TreeC2ERKSt6vectorISt5tupleIJiiiiEESaIS2_EE
FN:15,_ZN4Tree30calculateAllPairsShortestPathsEv
FNDA:2,_ZN4Tree30calculateAllPairsShortestPathsEv
FN:67,_ZNK4Tree20calculateTotalWeightEv
FNDA:2,_ZNK4Tree20calculateTotalWeightEv
FN:85,_ZNK4Tree24calculateLongestDistanceEv
FNDA:2,_ZNK4Tree24calculateLongestDistanceEv
FN:102,_ZNK4Tree24calculateAverageDistanceEv
FNDA:2,_ZNK4Tree24calculateAverageDistanceEv
FN:121,_ZNK4Tree25calculateShortestDistanceEii
FNDA:0,_ZNK4Tree25calculateShortestDistanceEii
DA:9,2
DA:11,2
DA:12,2
DA:15,2
DA:19,8
DA:21,6
DA:22,6
DA:26,10
DA:30,40
DA:31,32
DA:32,8
DA:37,8
DA:40,40
DA:42,32
DA:43,32
DA:46,32
DA:47,0
DA:50,80
DA:52,48
DA:53,48
DA:55,24
DA:56,24
DA:64,2
DA:67,2
DA:72,8
DA:74,6
DA:75,6
DA:77,6
DA:78,6
DA:81,2
DA:85,2
DA:87,2
DA:88,10
DA:90,40
DA:92,32
DA:94,32
DA:98,2
DA:102,2
DA:106,10
DA:108,40
DA:110,32
DA:112,24
DA:113,24
DA:117,2
DA:121,0
DA:124,0
DA:127,0
DA:129,0
end_of_record
SF:/usr/include/c++/11/bits/stl_pair.h
DA:266,12
DA:267,12
DA:322,32
DA:323,32
DA:353,6
DA:408,48
DA:409,8
DA:490,8
DA:491,8
end_of_record
SF:/usr/include/c++/11/bits/predefined_ops.h
DA:174,32
DA:187,8
end_of_record
SF:/usr/include/c++/11/ext/new_allocator.h
FN:103,_ZN9__gnu_cxx13new_allocatorINSt8__detail10_Hash_nodeIiLb0EEEE8allocateEmPKv
FNDA:6,_ZN9__gnu_cxx13new_allocatorINSt8__detail10_Hash_nodeIiLb0EEEE8allocateEmPKv
FN:103,_ZN9__gnu_cxx13new_allocatorIPNSt8__detail15_Hash_node_baseEE8allocateEmPKv
FNDA:22,_ZN9__gnu_cxx13new_allocatorIPNSt8__detail15_Hash_node_baseEE8allocateEmPKv
FN:103,_ZN9__gnu_cxx13new_allocatorINSt8__detail10_Hash_nodeISt4pairIKiSt13unordered_mapIiiSt4hashIiESt8equal_toIiESaIS3_IS4_iEEEELb0EEEE8allocateEmPKv
FNDA:8,_ZN9__gnu_cxx13new_allocatorINSt8__detail10_Hash_nodeISt4pairIKiSt13unordered_mapIiiSt4hashIiESt8equal_toIiESaIS3_IS4_iEEEELb0EEEE8allocateEmPKv
FN:103,_ZN9__gnu_cxx13new_allocatorINSt8__detail10_Hash_nodeISt4pairIKiiELb0EEEE8allocateEmPKv
FNDA:64,_ZN9__gnu_cxx13new_allocatorINSt8__detail10_Hash_nodeISt4pairIKiiELb0EEEE8allocateEmPKv
FN:103,_ZN9__gnu_cxx13new_allocatorINSt8__detail10_Hash_nodeISt4pairIKiSt6vectorIS3_IiiESaIS6_EEELb0EEEE8allocateEmPKv
FNDA:8,_ZN9__gnu_cxx13new_allocatorINSt8__detail10_Hash_nodeISt4pairIKiSt6vectorIS3_IiiESaIS6_EEELb0EEEE8allocateEmPKv
FN:103,_ZN9__gnu_cxx13new_allocatorISt5tupleIJiiiiEEE8allocateEmPKv
FNDA:2,_ZN9__gnu_cxx13new_allocatorISt5tupleIJiiiiEEE8allocateEmPKv
FN:103,_ZN9__gnu_cxx13new_allocatorISt4pairIiiEE8allocateEmPKv
FNDA:24,_ZN9__gnu_cxx13new_allocatorISt4pairIiiEE8allocateEmPKv
DA:103,6
DA:111,6
DA:115,0
DA:116,0
DA:117,0
DA:127,6
DA:103,22
DA:111,22
DA:115,0
DA:116,0
DA:117,0
DA:127,22
DA:103,8
DA:111,8
DA:115,0
DA:116,0
DA:117,0
DA:127,8
DA:103,64
DA:111,64
DA:115,0
DA:116,0
DA:117,0
DA:127,64
DA:103,8
DA:111,8
DA:115,0
DA:116,0
DA:117,0
DA:127,8
DA:103,2
DA:111,2
DA:115,0
DA:116,0
DA:117,0
DA:127,2
DA:103,24
DA:111,24
DA:115,0
DA:116,0
DA:117,0
DA:127,24
DA:145,50
DA:162,6
DA:168,8
end_of_record
SF:/usr/include/c++/11/bits/functional_hash.h
DA:154,280
end_of_record
SF:/usr/include/c++/11/bits/stl_queue.h
FN:656,_ZNSt14priority_queueISt4pairIiiESt6vectorIS1_SaIS1_EESt7greaterIS1_EE7emplaceIJRiRKiEEEvDpOT_
FNDA:24,_ZNSt14priority_queueISt4pairIiiESt6vectorIS1_SaIS1_EESt7greaterIS1_EE7emplaceIJRiRKiEEEvDpOT_
FN:656,_ZNSt14priority_queueISt4pairIiiESt6vectorIS1_SaIS1_EESt7greaterIS1_EE7emplaceIJiRKiEEEvDpOT_
FNDA:8,_ZNSt14priority_queueISt4pairIiiESt6vectorIS1_SaIS1_EESt7greaterIS1_EE7emplaceIJiRKiEEEvDpOT_
FN:675,_ZNSt14priority_queueISt4pairIiiESt6vectorIS1_SaIS1_EESt7greaterIS1_EE3popEv
FNDA:32,_ZNSt14priority_queueISt4pairIiiESt6vectorIS1_SaIS1_EESt7greaterIS1_EE3popEv
DA:456,8
DA:514,8
DA:656,24
DA:658,24
DA:659,24
DA:660,24
DA:656,8
DA:658,8
DA:659,8
DA:660,8
DA:675,32
DA:678,32
DA:680,32
end_of_record
SF:/usr/include/c++/11/bits/hashtable.h
FN:308,_ZNSt10_HashtableIiSt4pairIKiSt6vectorIS0_IiiESaIS3_EEESaIS6_ENSt8__detail10_Select1stESt8equal_toIiESt4hashIiENS8_18_Mod_range_hashingENS8_20_Default_ranged_hashENS8_20_Prime_rehash_policyENS8_17_Hashtable_traitsILb0ELb0ELb1EEEE12_Scoped_nodeD2Ev
FNDA:8,_ZNSt10_HashtableIiSt4pairIKiSt6vectorIS0_IiiESaIS3_EEESaIS6_ENSt8__detail10_Select1stESt8equal_toIiESt4hashIiENS8_18_Mod_range_hashingENS8_20_Default_ranged_hashENS8_20_Prime_rehash_policyENS8_17_Hashtable_traitsILb0ELb0ELb1EEEE12_Scoped_nodeD2Ev
FN:308,_ZNSt10_HashtableIiSt4pairIKiSt13unordered_mapIiiSt4hashIiESt8equal_toIiESaIS0_IS1_iEEEESaISA_ENSt8__detail10_Select1stES6_S4_NSC_18_Mod_range_hashingENSC_20_Default_ranged_hashENSC_20_Prime_rehash_policyENSC_17_Hashtable_traitsILb0ELb0ELb1EEEE12_Scoped_nodeD2Ev
FNDA:8,_ZNSt10_HashtableIiSt4pairIKiSt13unordered_mapIiiSt4hashIiESt8equal_toIiESaIS0_IS1_iEEEESaISA_ENSt8__detail10_Select1stES6_S4_NSC_18_Mod_range_hashingENSC_20_Default_ranged_hashENSC_20_Prime_rehash_policyENSC_17_Hashtable_traitsILb0ELb0ELb1EEEE12_Scoped_nodeD2Ev
FN:308,_ZNSt10_HashtableIiiSaIiENSt8__detail9_IdentityESt8equal_toIiESt4hashIiENS1_18_Mod_range_hashingENS1_20_Default_ranged_hashENS1_20_Prime_rehash_policyENS1_17_Hashtable_traitsILb0ELb1ELb1EEEE12_Scoped_nodeD2Ev
FNDA:6,_ZNSt10_HashtableIiiSaIiENSt8__detail9_IdentityESt8equal_toIiESt4hashIiENS1_18_Mod_range_hashingENS1_20_Default_ranged_hashENS1_20_Prime_rehash_policyENS1_17_Hashtable_traitsILb0ELb1ELb1EEEE12_Scoped_nodeD2Ev
FN:308,_ZNSt10_HashtableIiSt4pairIKiiESaIS2_ENSt8__detail10_Select1stESt8equal_toIiESt4hashIiENS4_18_Mod_range_hashingENS4_20_Default_ranged_hashENS4_20_Prime_rehash_policyENS4_17_Hashtable_traitsILb0ELb0ELb1EEEE12_Scoped_nodeD2Ev
FNDA:32,_ZNSt10_HashtableIiSt4pairIKiiESaIS2_ENSt8__detail10_Select1stESt8equal_toIiESt4hashIiENS4_18_Mod_range_hashingENS4_20_Default_ranged_hashENS4_20_Prime_rehash_policyENS4_17_Hashtable_traitsILb0ELb0ELb1EEEE12_Scoped_nodeD2Ev
FN:407,_ZNSt10_HashtableIiSt4pairIKiiESaIS2_ENSt8__detail10_Select1stESt8equal_toIiESt4hashIiENS4_18_Mod_range_hashingENS4_20_Default_ranged_hashENS4_20_Prime_rehash_policyENS4_17_Hashtable_traitsILb0ELb0ELb1EEEE16_M_update_bbeginEv
FNDA:8,_ZNSt10_HashtableIiSt4pairIKiiESaIS2_ENSt8__detail10_Select1stESt8equal_toIiESt4hashIiENS4_18_Mod_range_hashingENS4_20_Default_ranged_hashENS4_20_Prime_rehash_policyENS4_17_Hashtable_traitsILb0ELb0ELb1EEEE16_M_update_bbeginEv
FN:453,_ZNSt10_HashtableIiSt4pairIKiiESaIS2_ENSt8__detail10_Select1stESt8equal_toIiESt4hashIiENS4_18_Mod_range_hashingENS4_20_Default_ranged_hashENS4_20_Prime_rehash_policyENS4_17_Hashtable_traitsILb0ELb0ELb1EEEE21_M_deallocate_bucketsEv
FNDA:16,_ZNSt10_HashtableIiSt4pairIKiiESaIS2_ENSt8__detail10_Select1stESt8equal_toIiESt4hashIiENS4_18_Mod_range_hashingENS4_20_Default_ranged_hashENS4_20_Prime_rehash_policyENS4_17_Hashtable_traitsILb0ELb0ELb1EEEE21_M_deallocate_bucketsEv
FN:453,_ZNSt10_HashtableIiSt4pairIKiSt6vectorIS0_IiiESaIS3_EEESaIS6_ENSt8__detail10_Select1stESt8equal_toIiESt4hashIiENS8_18_Mod_range_hashingENS8_20_Default_ranged_hashENS8_20_Prime_rehash_policyENS8_17_Hashtable_traitsILb0ELb0ELb1EEEE21_M_deallocate_bucketsEv
FNDA:4,_ZNSt10_HashtableIiSt4pairIKiSt6vectorIS0_IiiESaIS3_EEESaIS6_ENSt8__detail10_Select1stESt8equal_toIiESt4hashIiENS8_18_Mod_range_hashingENS8_20_Default_ranged_hashENS8_20_Prime_rehash_policyENS8_17_Hashtable_traitsILb0ELb0ELb1EEEE21_M_deallocate_bucketsEv
FN:453,_ZNSt10_HashtableIiSt4pairIKiSt13unordered_mapIiiSt4hashIiESt8equal_toIiESaIS0_IS1_iEEEESaISA_ENSt8__detail10_Select1stES6_S4_NSC_18_Mod_range_hashingENSC_20_Default_ranged_hashENSC_20_Prime_rehash_policyENSC_17_Hashtable_traitsILb0ELb0ELb1EEEE21_M_deallocate_bucketsEv
FNDA:2,_ZNSt10_HashtableIiSt4pairIKiSt13unordered_mapIiiSt4hashIiESt8equal_toIiESaIS0_IS1_iEEEESaISA_ENSt8__detail10_Select1stES6_S4_NSC_18_Mod_range_hashingENSC_20_Default_ranged_hashENSC_20_Prime_rehash_policyENSC_17_Hashtable_traitsILb0ELb0ELb1EEEE21_M_deallocate_bucketsEv
FN:453,_ZNSt10_HashtableIiiSaIiENSt8__detail9_IdentityESt8equal_toIiESt4hashIiENS1_18_Mod_range_hashingENS1_20_Default_ranged_hashENS1_20_Prime_rehash_policyENS1_17_Hashtable_traitsILb0ELb1ELb1EEEE21_M_deallocate_bucketsEv
FNDA:4,_ZNSt10_HashtableIiiSaIiENSt8__detail9_IdentityESt8equal_toIiESt4hashIiENS1_18_Mod_range_hashingENS1_20_Default_ranged_hashENS1_20_Prime_rehash_policyENS1_17_Hashtable_traitsILb0ELb1ELb1EEEE21_M_deallocate_bucketsEv
FN:1238,_ZNSt10_HashtableIiSt4pairIKiiESaIS2_ENSt8__detail10_Select1stESt8equal_toIiESt4hashIiENS4_18_Mod_range_hashingENS4_20_Default_ranged_hashENS4_20_Prime_rehash_policyENS4_17_Hashtable_traitsILb0ELb0ELb1EEEE18_M_assign_elementsIRKSF_EEvOT_
FNDA:8,_ZNSt10_HashtableIiSt4pairIKiiESaIS2_ENSt8__detail10_Select1stESt8equal_toIiESt4hashIiENS4_18_Mod_range_hashingENS4_20_Default_ranged_hashENS4_20_Prime_rehash_policyENS4_17_Hashtable_traitsILb0ELb0ELb1EEEE18_M_assign_elementsIRKSF_EEvOT_
FN:1289,_ZNSt10_HashtableIiSt4pairIKiiESaIS2_ENSt8__detail10_Select1stESt8equal_toIiESt4hashIiENS4_18_Mod_range_hashingENS4_20_Default_ranged_hashENS4_20_Prime_rehash_policyENS4_17_Hashtable_traitsILb0ELb0ELb1EEEE9_M_assignIRKSF_NS4_17_ReuseOrAllocNodeISaINS4_10_Hash_nodeIS2_Lb0EEEEEEEEvOT_RKT0_
FNDA:8,_ZNSt10_HashtableIiSt4pairIKiiESaIS2_ENSt8__detail10_Select1stESt8equal_toIiESt4hashIiENS4_18_Mod_range_hashingENS4_20_Default_ranged_hashENS4_20_Prime_rehash_policyENS4_17_Hashtable_traitsILb0ELb0ELb1EEEE9_M_assignIRKSF_NS4_17_ReuseOrAllocNodeISaINS4_10_Hash_nodeIS2_Lb0EEEEEEEEvOT_RKT0_
FN:1588,_ZNSt10_HashtableIiiSaIiENSt8__detail9_IdentityESt8equal_toIiESt4hashIiENS1_18_Mod_range_hashingENS1_20_Default_ranged_hashENS1_20_Prime_rehash_policyENS1_17_Hashtable_traitsILb0ELb1ELb1EEEE4findERKi
FNDA:6,_ZNSt10_HashtableIiiSaIiENSt8__detail9_IdentityESt8equal_toIiESt4hashIiENS1_18_Mod_range_hashingENS1_20_Default_ranged_hashENS1_20_Prime_rehash_policyENS1_17_Hashtable_traitsILb0ELb1ELb1EEEE4findERKi
FN:1603,_ZNKSt10_HashtableIiSt4pairIKiiESaIS2_ENSt8__detail10_Select1stESt8equal_toIiESt4hashIiENS4_18_Mod_range_hashingENS4_20_Default_ranged_hashENS4_20_Prime_rehash_policyENS4_17_Hashtable_traitsILb0ELb0ELb1EEEE4findERS1_
FNDA:0,_ZNKSt10_HashtableIiSt4pairIKiiESaIS2_ENSt8__detail10_Select1stESt8equal_toIiESt4hashIiENS4_18_Mod_range_hashingENS4_20_Default_ranged_hashENS4_20_Prime_rehash_policyENS4_17_Hashtable_traitsILb0ELb0ELb1EEEE4findERS1_
FN:1603,_ZNKSt10_HashtableIiSt4pairIKiSt13unordered_mapIiiSt4hashIiESt8equal_toIiESaIS0_IS1_iEEEESaISA_ENSt8__detail10_Select1stES6_S4_NSC_18_Mod_range_hashingENSC_20_Default_ranged_hashENSC_20_Prime_rehash_policyENSC_17_Hashtable_traitsILb0ELb0ELb1EEEE4findERS1_
FNDA:0,_ZNKSt10_HashtableIiSt4pairIKiSt13unordered_mapIiiSt4hashIiESt8equal_toIiESaIS0_IS1_iEEEESaISA_ENSt8__detail10_Select1stES6_S4_NSC_18_Mod_range_hashingENSC_20_Default_ranged_hashENSC_20_Prime_rehash_policyENSC_17_Hashtable_traitsILb0ELb0ELb1EEEE4findERS1_
FN:1827,_ZNKSt10_HashtableIiiSaIiENSt8__detail9_IdentityESt8equal_toIiESt4hashIiENS1_18_Mod_range_hashingENS1_20_Default_ranged_hashENS1_20_Prime_rehash_policyENS1_17_Hashtable_traitsILb0ELb1ELb1EEEE19_M_find_before_nodeEmRKim
FNDA:12,_ZNKSt10_HashtableIiiSaIiENSt8__detail9_IdentityESt8equal_toIiESt4hashIiENS1_18_Mod_range_hashingENS1_20_Default_ranged_hashENS1_20_Prime_rehash_policyENS1_17_Hashtable_traitsILb0ELb1ELb1EEEE19_M_find_before_nodeEmRKim
FN:1827,_ZNKSt10_HashtableIiSt4pairIKiSt13unordered_mapIiiSt4hashIiESt8equal_toIiESaIS0_IS1_iEEEESaISA_ENSt8__detail10_Select1stES6_S4_NSC_18_Mod_range_hashingENSC_20_Default_ranged_hashENSC_20_Prime_rehash_policyENSC_17_Hashtable_traitsILb0ELb0ELb1EEEE19_M_find_before_nodeEmRS1_m
FNDA:8,_ZNKSt10_HashtableIiSt4pairIKiSt13unordered_mapIiiSt4hashIiESt8equal_toIiESaIS0_IS1_iEEEESaISA_ENSt8__detail10_Select1stES6_S4_NSC_18_Mod_range_hashingENSC_20_Default_ranged_hashENSC_20_Prime_rehash_policyENSC_17_Hashtable_traitsILb0ELb0ELb1EEEE19_M_find_before_nodeEmRS1_m
FN:1827,_ZNKSt10_HashtableIiSt4pairIKiiESaIS2_ENSt8__detail10_Select1stESt8equal_toIiESt4hashIiENS4_18_Mod_range_hashingENS4_20_Default_ranged_hashENS4_20_Prime_rehash_policyENS4_17_Hashtable_traitsILb0ELb0ELb1EEEE19_M_find_before_nodeEmRS1_m
FNDA:144,_ZNKSt10_HashtableIiSt4pairIKiiESaIS2_ENSt8__detail10_Select1stESt8equal_toIiESt4hashIiENS4_18_Mod_range_hashingENS4_20_Default_ranged_hashENS4_20_Prime_rehash_policyENS4_17_Hashtable_traitsILb0ELb0ELb1EEEE19_M_find_before_nodeEmRS1_m
FN:1827,_ZNKSt10_HashtableIiSt4pairIKiSt6vectorIS0_IiiESaIS3_EEESaIS6_ENSt8__detail10_Select1stESt8equal_toIiESt4hashIiENS8_18_Mod_range_hashingENS8_20_Default_ranged_hashENS8_20_Prime_rehash_policyENS8_17_Hashtable_traitsILb0ELb0ELb1EEEE19_M_find_before_nodeEmRS1_m
FNDA:44,_ZNKSt10_HashtableIiSt4pairIKiSt6vectorIS0_IiiESaIS3_EEESaIS6_ENSt8__detail10_Select1stESt8equal_toIiESt4hashIiENS8_18_Mod_range_hashingENS8_20_Default_ranged_hashENS8_20_Prime_rehash_policyENS8_17_Hashtable_traitsILb0ELb0ELb1EEEE19_M_find_before_nodeEmRS1_m
FN:1886,_ZNSt10_HashtableIiSt4pairIKiiESaIS2_ENSt8__detail10_Select1stESt8equal_toIiESt4hashIiENS4_18_Mod_range_hashingENS4_20_Default_ranged_hashENS4_20_Prime_rehash_policyENS4_17_Hashtable_traitsILb0ELb0ELb1EEEE22_M_insert_bucket_beginEmPNS4_10_Hash_nodeIS2_Lb0EEE
FNDA:32,_ZNSt10_HashtableIiSt4pairIKiiESaIS2_ENSt8__detail10_Select1stESt8equal_toIiESt4hashIiENS4_18_Mod_range_hashingENS4_20_Default_ranged_hashENS4_20_Prime_rehash_policyENS4_17_Hashtable_traitsILb0ELb0ELb1EEEE22_M_insert_bucket_beginEmPNS4_10_Hash_nodeIS2_Lb0EEE
FN:1886,_ZNSt10_HashtableIiSt4pairIKiSt6vectorIS0_IiiESaIS3_EEESaIS6_ENSt8__detail10_Select1stESt8equal_toIiESt4hashIiENS8_18_Mod_range_hashingENS8_20_Default_ranged_hashENS8_20_Prime_rehash_policyENS8_17_Hashtable_traitsILb0ELb0ELb1EEEE22_M_insert_bucket_beginEmPNS8_10_Hash_nodeIS6_Lb0EEE
FNDA:8,_ZNSt10_HashtableIiSt4pairIKiSt6vectorIS0_IiiESaIS3_EEESaIS6_ENSt8__detail10_Select1stESt8equal_toIiESt4hashIiENS8_18_Mod_range_hashingENS8_20_Default_ranged_hashENS8_20_Prime_rehash_policyENS8_17_Hashtable_traitsILb0ELb0ELb1EEEE22_M_insert_bucket_beginEmPNS8_10_Hash_nodeIS6_Lb0EEE
FN:1886,_ZNSt10_HashtableIiSt4pairIKiSt13unordered_mapIiiSt4hashIiESt8equal_toIiESaIS0_IS1_iEEEESaISA_ENSt8__detail10_Select1stES6_S4_NSC_18_Mod_range_hashingENSC_20_Default_ranged_hashENSC_20_Prime_rehash_policyENSC_17_Hashtable_traitsILb0ELb0ELb1EEEE22_M_insert_bucket_beginEmPNSC_10_Hash_nodeISA_Lb0EEE
FNDA:8,_ZNSt10_HashtableIiSt4pairIKiSt13unordered_mapIiiSt4hashIiESt8equal_toIiESaIS0_IS1_iEEEESaISA_ENSt8__detail10_Select1stES6_S4_NSC_18_Mod_range_hashingENSC_20_Default_ranged_hashENSC_20_Prime_rehash_policyENSC_17_Hashtable_traitsILb0ELb0ELb1EEEE22_M_insert_bucket_beginEmPNSC_10_Hash_nodeISA_Lb0EEE
FN:1886,_ZNSt10_HashtableIiiSaIiENSt8__detail9_IdentityESt8equal_toIiESt4hashIiENS1_18_Mod_range_hashingENS1_20_Default_ranged_hashENS1_20_Prime_rehash_policyENS1_17_Hashtable_traitsILb0ELb1ELb1EEEE22_M_insert_bucket_beginEmPNS1_10_Hash_nodeIiLb0EEE
FNDA:6,_ZNSt10_HashtableIiiSaIiENSt8__detail9_IdentityESt8equal_toIiESt4hashIiENS1_18_Mod_range_hashingENS1_20_Default_ranged_hashENS1_20_Prime_rehash_policyENS1_17_Hashtable_traitsILb0ELb1ELb1EEEE22_M_insert_bucket_beginEmPNS1_10_Hash_nodeIiLb0EEE
FN:2008,_ZNSt10_HashtableIiSt4pairIKiSt13unordered_mapIiiSt4hashIiESt8equal_toIiESaIS0_IS1_iEEEESaISA_ENSt8__detail10_Select1stES6_S4_NSC_18_Mod_range_hashingENSC_20_Default_ranged_hashENSC_20_Prime_rehash_policyENSC_17_Hashtable_traitsILb0ELb0ELb1EEEE21_M_insert_unique_nodeEmmPNSC_10_Hash_nodeISA_Lb0EEEm
FNDA:8,_ZNSt10_HashtableIiSt4pairIKiSt13unordered_mapIiiSt4hashIiESt8equal_toIiESaIS0_IS1_iEEEESaISA_ENSt8__detail10_Select1stES6_S4_NSC_18_Mod_range_hashingENSC_20_Default_ranged_hashENSC_20_Prime_rehash_policyENSC_17_Hashtable_traitsILb0ELb0ELb1EEEE21_M_insert_unique_nodeEmmPNSC_10_Hash_nodeISA_Lb0EEEm
FN:2008,_ZNSt10_HashtableIiSt4pairIKiiESaIS2_ENSt8__detail10_Select1stESt8equal_toIiESt4hashIiENS4_18_Mod_range_hashingENS4_20_Default_ranged_hashENS4_20_Prime_rehash_policyENS4_17_Hashtable_traitsILb0ELb0ELb1EEEE21_M_insert_unique_nodeEmmPNS4_10_Hash_nodeIS2_Lb0EEEm
FNDA:32,_ZNSt10_HashtableIiSt4pairIKiiESaIS2_ENSt8__detail10_Select1stESt8equal_toIiESt4hashIiENS4_18_Mod_range_hashingENS4_20_Default_ranged_hashENS4_20_Prime_rehash_policyENS4_17_Hashtable_traitsILb0ELb0ELb1EEEE21_M_insert_unique_nodeEmmPNS4_10_Hash_nodeIS2_Lb0EEEm
FN:2008,_ZNSt10_HashtableIiiSaIiENSt8__detail9_IdentityESt8equal_toIiESt4hashIiENS1_18_Mod_range_hashingENS1_20_Default_ranged_hashENS1_20_Prime_rehash_policyENS1_17_Hashtable_traitsILb0ELb1ELb1EEEE21_M_insert_unique_nodeEmmPNS1_10_Hash_nodeIiLb0EEEm
FNDA:6,_ZNSt10_HashtableIiiSaIiENSt8__detail9_IdentityESt8equal_toIiESt4hashIiENS1_18_Mod_range_hashingENS1_20_Default_ranged_hashENS1_20_Prime_rehash_policyENS1_17_Hashtable_traitsILb0ELb1ELb1EEEE21_M_insert_unique_nodeEmmPNS1_10_Hash_nodeIiLb0EEEm
FN:2008,_ZNSt10_HashtableIiSt4pairIKiSt6vectorIS0_IiiESaIS3_EEESaIS6_ENSt8__detail10_Select1stESt8equal_toIiESt4hashIiENS8_18_Mod_range_hashingENS8_20_Default_ranged_hashENS8_20_Prime_rehash_policyENS8_17_Hashtable_traitsILb0ELb0ELb1EEEE21_M_insert_unique_nodeEmmPNS8_10_Hash_nodeIS6_Lb0EEEm
FNDA:8,_ZNSt10_HashtableIiSt4pairIKiSt6vectorIS0_IiiESaIS3_EEESaIS6_ENSt8__detail10_Select1stESt8equal_toIiESt4hashIiENS8_18_Mod_range_hashingENS8_20_Default_ranged_hashENS8_20_Prime_rehash_policyENS8_17_Hashtable_traitsILb0ELb0ELb1EEEE21_M_insert_unique_nodeEmmPNS8_10_Hash_nodeIS6_Lb0EEEm
FN:2095,_ZNSt10_HashtableIiiSaIiENSt8__detail9_IdentityESt8equal_toIiESt4hashIiENS1_18_Mod_range_hashingENS1_20_Default_ranged_hashENS1_20_Prime_rehash_policyENS1_17_Hashtable_traitsILb0ELb1ELb1EEEE9_M_insertIRKiNS1_10_AllocNodeISaINS1_10_Hash_nodeIiLb0EEEEEEEESt4pairINS1_14_Node_iteratorIiLb1ELb0EEEbEOT_RKT0_St17integral_constantIbLb1EE
FNDA:6,_ZNSt10_HashtableIiiSaIiENSt8__detail9_IdentityESt8equal_toIiESt4hashIiENS1_18_Mod_range_hashingENS1_20_Default_ranged_hashENS1_20_Prime_rehash_policyENS1_17_Hashtable_traitsILb0ELb1ELb1EEEE9_M_insertIRKiNS1_10_AllocNodeISaINS1_10_Hash_nodeIiLb0EEEEEEEESt4pairINS1_14_Node_iteratorIiLb1ELb0EEEbEOT_RKT0_St17integral_constantIbLb1EE
FN:2316,_ZNSt10_HashtableIiiSaIiENSt8__detail9_IdentityESt8equal_toIiESt4hashIiENS1_18_Mod_range_hashingENS1_20_Default_ranged_hashENS1_20_Prime_rehash_policyENS1_17_Hashtable_traitsILb0ELb1ELb1EEEE5clearEv
FNDA:2,_ZNSt10_HashtableIiiSaIiENSt8__detail9_IdentityESt8equal_toIiESt4hashIiENS1_18_Mod_range_hashingENS1_20_Default_ranged_hashENS1_20_Prime_rehash_policyENS1_17_Hashtable_traitsILb0ELb1ELb1EEEE5clearEv
FN:2316,_ZNSt10_HashtableIiSt4pairIKiiESaIS2_ENSt8__detail10_Select1stESt8equal_toIiESt4hashIiENS4_18_Mod_range_hashingENS4_20_Default_ranged_hashENS4_20_Prime_rehash_policyENS4_17_Hashtable_traitsILb0ELb0ELb1EEEE5clearEv
FNDA:0,_ZNSt10_HashtableIiSt4pairIKiiESaIS2_ENSt8__detail10_Select1stESt8equal_toIiESt4hashIiENS4_18_Mod_range_hashingENS4_20_Default_ranged_hashENS4_20_Prime_rehash_policyENS4_17_Hashtable_traitsILb0ELb0ELb1EEEE5clearEv
FN:2316,_ZNSt10_HashtableIiSt4pairIKiSt6vectorIS0_IiiESaIS3_EEESaIS6_ENSt8__detail10_Select1stESt8equal_toIiESt4hashIiENS8_18_Mod_range_hashingENS8_20_Default_ranged_hashENS8_20_Prime_rehash_policyENS8_17_Hashtable_traitsILb0ELb0ELb1EEEE5clearEv
FNDA:2,_ZNSt10_HashtableIiSt4pairIKiSt6vectorIS0_IiiESaIS3_EEESaIS6_ENSt8__detail10_Select1stESt8equal_toIiESt4hashIiENS8_18_Mod_range_hashingENS8_20_Default_ranged_hashENS8_20_Prime_rehash_policyENS8_17_Hashtable_traitsILb0ELb0ELb1EEEE5clearEv
FN:2316,_ZNSt10_HashtableIiSt4pairIKiSt13unordered_mapIiiSt4hashIiESt8equal_toIiESaIS0_IS1_iEEEESaISA_ENSt8__detail10_Select1stES6_S4_NSC_18_Mod_range_hashingENSC_20_Default_ranged_hashENSC_20_Prime_rehash_policyENSC_17_Hashtable_traitsILb0ELb0ELb1EEEE5clearEv
FNDA:0,_ZNSt10_HashtableIiSt4pairIKiSt13unordered_mapIiiSt4hashIiESt8equal_toIiESaIS0_IS1_iEEEESaISA_ENSt8__detail10_Select1stES6_S4_NSC_18_Mod_range_hashingENSC_20_Default_ranged_hashENSC_20_Prime_rehash_policyENSC_17_Hashtable_traitsILb0ELb0ELb1EEEE5clearEv
FN:2355,_ZNSt10_HashtableIiSt4pairIKiSt6vectorIS0_IiiESaIS3_EEESaIS6_ENSt8__detail10_Select1stESt8equal_toIiESt4hashIiENS8_18_Mod_range_hashingENS8_20_Default_ranged_hashENS8_20_Prime_rehash_policyENS8_17_Hashtable_traitsILb0ELb0ELb1EEEE9_M_rehashEmRKm
FNDA:2,_ZNSt10_HashtableIiSt4pairIKiSt6vectorIS0_IiiESaIS3_EEESaIS6_ENSt8__detail10_Select1stESt8equal_toIiESt4hashIiENS8_18_Mod_range_hashingENS8_20_Default_ranged_hashENS8_20_Prime_rehash_policyENS8_17_Hashtable_traitsILb0ELb0ELb1EEEE9_M_rehashEmRKm
FN:2355,_ZNSt10_HashtableIiSt4pairIKiiESaIS2_ENSt8__detail10_Select1stESt8equal_toIiESt4hashIiENS4_18_Mod_range_hashingENS4_20_Default_ranged_hashENS4_20_Prime_rehash_policyENS4_17_Hashtable_traitsILb0ELb0ELb1EEEE9_M_rehashEmRKm
FNDA:8,_ZNSt10_HashtableIiSt4pairIKiiESaIS2_ENSt8__detail10_Select1stESt8equal_toIiESt4hashIiENS4_18_Mod_range_hashingENS4_20_Default_ranged_hashENS4_20_Prime_rehash_policyENS4_17_Hashtable_traitsILb0ELb0ELb1EEEE9_M_rehashEmRKm
FN:2355,_ZNSt10_HashtableIiSt4pairIKiSt13unordered_mapIiiSt4hashIiESt8equal_toIiESaIS0_IS1_iEEEESaISA_ENSt8__detail10_Select1stES6_S4_NSC_18_Mod_range_hashingENSC_20_Default_ranged_hashENSC_20_Prime_rehash_policyENSC_17_Hashtable_traitsILb0ELb0ELb1EEEE9_M_rehashEmRKm
FNDA:2,_ZNSt10_HashtableIiSt4pairIKiSt13unordered_mapIiiSt4hashIiESt8equal_toIiESaIS0_IS1_iEEEESaISA_ENSt8__detail10_Select1stES6_S4_NSC_18_Mod_range_hashingENSC_20_Default_ranged_hashENSC_20_Prime_rehash_policyENSC_17_Hashtable_traitsILb0ELb0ELb1EEEE9_M_rehashEmRKm
FN:2355,_ZNSt10_HashtableIiiSaIiENSt8__detail9_IdentityESt8equal_toIiESt4hashIiENS1_18_Mod_range_hashingENS1_20_Default_ranged_hashENS1_20_Prime_rehash_policyENS1_17_Hashtable_traitsILb0ELb1ELb1EEEE9_M_rehashEmRKm
FNDA:2,_ZNSt10_HashtableIiiSaIiENSt8__detail9_IdentityESt8equal_toIiESt4hashIiENS1_18_Mod_range_hashingENS1_20_Default_ranged_hashENS1_20_Prime_rehash_policyENS1_17_Hashtable_traitsILb0ELb1ELb1EEEE9_M_rehashEmRKm
FN:2378,_ZNSt10_HashtableIiiSaIiENSt8__detail9_IdentityESt8equal_toIiESt4hashIiENS1_18_Mod_range_hashingENS1_20_Default_ranged_hashENS1_20_Prime_rehash_policyENS1_17_Hashtable_traitsILb0ELb1ELb1EEEE13_M_rehash_auxEmSt17integral_constantIbLb1EE
FNDA:2,_ZNSt10_HashtableIiiSaIiENSt8__detail9_IdentityESt8equal_toIiESt4hashIiENS1_18_Mod_range_hashingENS1_20_Default_ranged_hashENS1_20_Prime_rehash_policyENS1_17_Hashtable_traitsILb0ELb1ELb1EEEE13_M_rehash_auxEmSt17integral_constantIbLb1EE
FN:2378,_ZNSt10_HashtableIiSt4pairIKiSt6vectorIS0_IiiESaIS3_EEESaIS6_ENSt8__detail10_Select1stESt8equal_toIiESt4hashIiENS8_18_Mod_range_hashingENS8_20_Default_ranged_hashENS8_20_Prime_rehash_policyENS8_17_Hashtable_traitsILb0ELb0ELb1EEEE13_M_rehash_auxEmSt17integral_constantIbLb1EE
FNDA:2,_ZNSt10_HashtableIiSt4pairIKiSt6vectorIS0_IiiESaIS3_EEESaIS6_ENSt8__detail10_Select1stESt8equal_toIiESt4hashIiENS8_18_Mod_range_hashingENS8_20_Default_ranged_hashENS8_20_Prime_rehash_policyENS8_17_Hashtable_traitsILb0ELb0ELb1EEEE13_M_rehash_auxEmSt17integral_constantIbLb1EE
FN:2378,_ZNSt10_HashtableIiSt4pairIKiiESaIS2_ENSt8__detail10_Select1stESt8equal_toIiESt4hashIiENS4_18_Mod_range_hashingENS4_20_Default_ranged_hashENS4_20_Prime_rehash_policyENS4_17_Hashtable_traitsILb0ELb0ELb1EEEE13_M_rehash_auxEmSt17integral_constantIbLb1EE
FNDA:8,_ZNSt10_HashtableIiSt4pairIKiiESaIS2_ENSt8__detail10_Select1stESt8equal_toIiESt4hashIiENS4_18_Mod_range_hashingENS4_20_Default_ranged_hashENS4_20_Prime_rehash_policyENS4_17_Hashtable_traitsILb0ELb0ELb1EEEE13_M_rehash_auxEmSt17integral_constantIbLb1EE
FN:2378,_ZNSt10_HashtableIiSt4pairIKiSt13unordered_mapIiiSt4hashIiESt8equal_toIiESaIS0_IS1_iEEEESaISA_ENSt8__detail10_Select1stES6_S4_NSC_18_Mod_range_hashingENSC_20_Default_ranged_hashENSC_20_Prime_rehash_policyENSC_17_Hashtable_traitsILb0ELb0ELb1EEEE13_M_rehash_auxEmSt17integral_constantIbLb1EE
FNDA:2,_ZNSt10_HashtableIiSt4pairIKiSt13unordered_mapIiiSt4hashIiESt8equal_toIiESaIS0_IS1_iEEEESaISA_ENSt8__detail10_Select1stES6_S4_NSC_18_Mod_range_hashingENSC_20_Default_ranged_hashENSC_20_Prime_rehash_policyENSC_17_Hashtable_traitsILb0ELb0ELb1EEEE13_M_rehash_auxEmSt17integral_constantIbLb1EE
DA:297,6
DA:298,6
DA:302,48
DA:303,48
DA:304,48
DA:308,6
DA:308,8
DA:308,32
DA:308,8
DA:407,8
DA:409,8
DA:410,8
DA:411,8
DA:416,8
DA:417,8
DA:422,34
DA:434,22
DA:436,0
DA:437,0
DA:440,22
DA:446,8
DA:453,4
DA:454,4
DA:453,16
DA:454,16
DA:453,4
DA:454,4
DA:453,2
DA:454,2
DA:463,38
DA:528,14
DA:791,48
DA:795,222
DA:810,208
DA:811,208
DA:812,148
DA:1190,8
DA:1228,8
DA:1229,8
DA:1238,8
DA:1243,8
DA:1246,8
DA:1248,8
DA:1249,8
DA:1250,8
DA:1253,0
DA:1259,8
DA:1260,8
DA:1262,8
DA:1263,8
DA:1264,8
DA:1266,8
DA:1267,0
DA:1269,0
DA:1272,0
DA:1274,0
DA:1275,0
DA:1277,0
DA:1278,0
DA:1279,0
DA:1281,8
DA:1289,8
DA:1294,8
DA:1295,0
DA:1299,8
DA:1306,8
DA:1312,32
DA:1314,24
DA:1315,24
DA:1318,24
DA:1319,24
DA:1323,0
DA:1325,0
DA:1326,0
DA:1327,0
DA:1328,0
DA:1532,12
DA:1533,12
DA:1588,6
DA:1595,6
DA:1603,0
DA:1610,0
DA:1603,0
DA:1610,0
DA:1827,12
DA:1833,12
DA:1834,12
DA:1837,0
DA:1841,0
DA:1843,0
DA:1827,8
DA:1833,8
DA:1834,8
DA:1837,0
DA:1841,0
DA:1843,0
DA:1827,144
DA:1833,144
DA:1834,144
DA:1837,112
DA:1841,112
DA:1843,0
DA:1827,44
DA:1833,44
DA:1834,44
DA:1837,36
DA:1841,36
DA:1843,0
DA:1886,6
DA:1890,6
DA:1894,0
DA:1895,0
DA:1902,6
DA:1903,6
DA:1905,6
DA:1908,4
DA:1910,6
DA:1912,6
DA:1886,8
DA:1890,8
DA:1894,0
DA:1895,0
DA:1902,8
DA:1903,8
DA:1905,8
DA:1908,6
DA:1910,8
DA:1912,8
DA:1886,32
DA:1890,32
DA:1894,0
DA:1895,0
DA:1902,32
DA:1903,32
DA:1905,32
DA:1908,24
DA:1910,32
DA:1912,32
DA:1886,8
DA:1890,8
DA:1894,0
DA:1895,0
DA:1902,8
DA:1903,8
DA:1905,8
DA:1908,6
DA:1910,8
DA:1912,8
DA:2008,6
DA:2014,6
DA:2016,6
DA:2019,6
DA:2021,2
DA:2028,6
DA:2029,6
DA:2030,6
DA:2008,8
DA:2014,8
DA:2016,8
DA:2019,8
DA:2021,2
DA:2028,8
DA:2029,8
DA:2030,8
DA:2008,32
DA:2014,32
DA:2016,32
DA:2019,32
DA:2021,8
DA:2028,32
DA:2029,32
DA:2030,32
DA:2008,8
DA:2014,8
DA:2016,8
DA:2019,8
DA:2021,2
DA:2028,8
DA:2029,8
DA:2030,8
DA:2095,6
DA:2105,0
DA:2106,0
DA:2110,6
DA:2111,6
DA:2112,6
DA:2113,6
DA:2316,2
DA:2321,2
DA:2322,2
DA:2323,2
DA:2324,2
DA:2325,2
DA:2316,0
DA:2321,0
DA:2322,0
DA:2323,0
DA:2324,0
DA:2325,0
DA:2316,2
DA:2320,2
DA:2321,2
DA:2322,2
DA:2323,2
DA:2324,2
DA:2325,2
DA:2316,0
DA:2321,0
DA:2322,0
DA:2323,0
DA:2324,0
DA:2325,0
DA:2355,2
DA:2361,2
DA:2363,0
DA:2367,0
DA:2368,0
DA:2370,2
DA:2355,2
DA:2361,2
DA:2363,0
DA:2367,0
DA:2368,0
DA:2370,2
DA:2355,8
DA:2361,8
DA:2363,0
DA:2367,0
DA:2368,0
DA:2370,8
DA:2355,2
DA:2361,2
DA:2363,0
DA:2367,0
DA:2368,0
DA:2370,2
DA:2378,2
DA:2384,2
DA:2386,2
DA:2391,0
DA:2393,0
DA:2394,0
DA:2395,0
DA:2396,0
DA:2397,0
DA:2402,0
DA:2403,0
DA:2409,2
DA:2410,2
DA:2411,2
DA:2412,2
DA:2378,2
DA:2384,2
DA:2386,2
DA:2391,0
DA:2393,0
DA:2394,0
DA:2395,0
DA:2396,0
DA:2397,0
DA:2402,0
DA:2403,0
DA:2409,2
DA:2410,2
DA:2411,2
DA:2412,2
DA:2378,8
DA:2384,8
DA:2386,8
DA:2391,0
DA:2393,0
DA:2394,0
DA:2395,0
DA:2396,0
DA:2397,0
DA:2402,0
DA:2403,0
DA:2409,8
DA:2410,8
DA:2411,8
DA:2412,8
DA:2378,2
DA:2384,2
DA:2386,2
DA:2391,0
DA:2393,0
DA:2394,0
DA:2395,0
DA:2396,0
DA:2397,0
DA:2402,0
DA:2403,0
DA:2409,2
DA:2410,2
DA:2411,2
DA:2412,2
end_of_record
SF:/usr/include/c++/11/bits/vector.tcc
FN:109,_ZNSt6vectorISt4pairIiiESaIS1_EE12emplace_backIJRiRKiEEERS1_DpOT_
FNDA:24,_ZNSt6vectorISt4pairIiiESaIS1_EE12emplace_backIJRiRKiEEERS1_DpOT_
FN:109,_ZNSt6vectorISt4pairIiiESaIS1_EE12emplace_backIJiRKiEEERS1_DpOT_
FNDA:8,_ZNSt6vectorISt4pairIiiESaIS1_EE12emplace_backIJiRKiEEERS1_DpOT_
FN:109,_ZNSt6vectorISt4pairIiiESaIS1_EE12emplace_backIJRKiS6_EEERS1_DpOT_
FNDA:12,_ZNSt6vectorISt4pairIiiESaIS1_EE12emplace_backIJRKiS6_EEERS1_DpOT_
FN:426,_ZNSt6vectorISt4pairIiiESaIS1_EE17_M_realloc_insertIJRiRKiEEEvN9__gnu_cxx17__normal_iteratorIPS1_S3_EEDpOT_
FNDA:4,_ZNSt6vectorISt4pairIiiESaIS1_EE17_M_realloc_insertIJRiRKiEEEvN9__gnu_cxx17__normal_iteratorIPS1_S3_EEDpOT_
FN:426,_ZNSt6vectorISt4pairIiiESaIS1_EE17_M_realloc_insertIJiRKiEEEvN9__gnu_cxx17__normal_iteratorIPS1_S3_EEDpOT_
FNDA:8,_ZNSt6vectorISt4pairIiiESaIS1_EE17_M_realloc_insertIJiRKiEEEvN9__gnu_cxx17__normal_iteratorIPS1_S3_EEDpOT_
FN:426,_ZNSt6vectorISt4pairIiiESaIS1_EE17_M_realloc_insertIJRKiS6_EEEvN9__gnu_cxx17__normal_iteratorIPS1_S3_EEDpOT_
FNDA:12,_ZNSt6vectorISt4pairIiiESaIS1_EE17_M_realloc_insertIJRKiS6_EEEvN9__gnu_cxx17__normal_iteratorIPS1_S3_EEDpOT_
DA:109,24
DA:112,24
DA:117,20
DA:121,4
DA:123,24
DA:109,8
DA:112,8
DA:117,0
DA:121,8
DA:123,8
DA:109,12
DA:112,12
DA:117,0
DA:121,12
DA:123,12
DA:426,4
DA:436,4
DA:437,4
DA:438,4
DA:449,4
DA:450,4
DA:464,4
DA:501,4
DA:502,4
DA:503,4
DA:504,4
DA:505,4
DA:426,8
DA:436,8
DA:437,8
DA:438,8
DA:449,8
DA:450,8
DA:464,8
DA:501,8
DA:502,8
DA:503,8
DA:504,8
DA:505,8
DA:426,12
DA:436,12
DA:437,12
DA:438,12
DA:449,12
DA:450,12
DA:464,12
DA:501,12
DA:502,12
DA:503,12
DA:504,12
DA:505,12
end_of_record
SF:/usr/include/c++/11/bits/stl_heap.h
FN:134,_ZSt11__push_heapIN9__gnu_cxx17__normal_iteratorIPSt4pairIiiESt6vectorIS3_SaIS3_EEEElS3_NS0_5__ops14_Iter_comp_valISt7greaterIS3_EEEEvT_T0_SF_T1_RT2_
FNDA:40,_ZSt11__push_heapIN9__gnu_cxx17__normal_iteratorIPSt4pairIiiESt6vectorIS3_SaIS3_EEEElS3_NS0_5__ops14_Iter_comp_valISt7greaterIS3_EEEEvT_T0_SF_T1_RT2_
FN:197,_ZSt9push_heapIN9__gnu_cxx17__normal_iteratorIPSt4pairIiiESt6vectorIS3_SaIS3_EEEESt7greaterIS3_EEvT_SB_T0_
FNDA:32,_ZSt9push_heapIN9__gnu_cxx17__normal_iteratorIPSt4pairIiiESt6vectorIS3_SaIS3_EEEESt7greaterIS3_EEvT_SB_T0_
FN:223,_ZSt13__adjust_heapIN9__gnu_cxx17__normal_iteratorIPSt4pairIiiESt6vectorIS3_SaIS3_EEEElS3_NS0_5__ops15_Iter_comp_iterISt7greaterIS3_EEEEvT_T0_SF_T1_T2_
FNDA:8,_ZSt13__adjust_heapIN9__gnu_cxx17__normal_iteratorIPSt4pairIiiESt6vectorIS3_SaIS3_EEEElS3_NS0_5__ops15_Iter_comp_iterISt7greaterIS3_EEEEvT_T0_SF_T1_T2_
FN:253,_ZSt10__pop_heapIN9__gnu_cxx17__normal_iteratorIPSt4pairIiiESt6vectorIS3_SaIS3_EEEENS0_5__ops15_Iter_comp_iterISt7greaterIS3_EEEEvT_SE_SE_RT0_
FNDA:8,_ZSt10__pop_heapIN9__gnu_cxx17__normal_iteratorIPSt4pairIiiESt6vectorIS3_SaIS3_EEEENS0_5__ops15_Iter_comp_iterISt7greaterIS3_EEEEvT_SE_SE_RT0_
FN:316,_ZSt8pop_heapIN9__gnu_cxx17__normal_iteratorIPSt4pairIiiESt6vectorIS3_SaIS3_EEEESt7greaterIS3_EEvT_SB_T0_
FNDA:32,_ZSt8pop_heapIN9__gnu_cxx17__normal_iteratorIPSt4pairIiiESt6vectorIS3_SaIS3_EEEESt7greaterIS3_EEvT_SB_T0_
DA:134,40
DA:138,40
DA:139,40
DA:143,0
DA:146,40
DA:197,32
DA:214,32
DA:215,32
DA:217,32
DA:223,8
DA:228,8
DA:230,0
DA:231,0
DA:237,8
DA:239,0
DA:240,0
DA:246,8
DA:248,8
DA:253,8
DA:261,8
DA:263,8
DA:266,8
DA:316,32
DA:327,32
DA:332,8
DA:334,32
end_of_record
SF:/usr/include/c++/11/bits/stl_algobase.h
DA:259,56
DA:260,22
end_of_record
SF:/usr/include/c++/11/bits/stl_vector.h
FN:333,_ZNSt12_Vector_baseISt4pairIiiESaIS1_EED2Ev
FNDA:16,_ZNSt12_Vector_baseISt4pairIiiESaIS1_EED2Ev
FN:333,_ZNSt12_Vector_baseISt5tupleIJiiiiEESaIS1_EED2Ev
FNDA:0,_ZNSt12_Vector_baseISt5tupleIJiiiiEESaIS1_EED2Ev
FN:359,_ZNSt12_Vector_baseISt5tupleIJiiiiEESaIS1_EE17_M_create_storageEm
FNDA:2,_ZNSt12_Vector_baseISt5tupleIJiiiiEESaIS1_EE17_M_create_storageEm
FN:553,_ZNSt6vectorISt5tupleIJiiiiEESaIS1_EEC2ERKS3_
FNDA:2,_ZNSt6vectorISt5tupleIJiiiiEESaIS1_EEC2ERKS3_
FN:1756,_ZNKSt6vectorISt4pairIiiESaIS1_EE12_M_check_lenEmPKc
FNDA:24,_ZNKSt6vectorISt4pairIiiESaIS1_EE12_M_check_lenEmPKc
DA:97,18
DA:98,8
DA:305,2
DA:333,16
DA:335,16
DA:336,16
DA:337,16
DA:333,0
DA:335,0
DA:336,0
DA:337,0
DA:346,26
DA:353,40
DA:359,2
DA:361,2
DA:362,2
DA:363,2
DA:364,2
DA:553,2
DA:555,2
DA:557,2
DA:558,2
DA:561,2
DA:683,16
DA:919,2
DA:1228,32
DA:1756,24
DA:1758,24
DA:1759,0
DA:1761,24
DA:1762,24
end_of_record
SF:/usr/include/c++/11/ext/aligned_buffer.h
DA:104,32
end_of_record
SF:/usr/include/c++/11/bits/unordered_set.h
FN:421,_ZNSt13unordered_setIiSt4hashIiESt8equal_toIiESaIiEE6insertERKi
FNDA:6,_ZNSt13unordered_setIiSt4hashIiESt8equal_toIiESaIiEE6insertERKi
DA:97,2
DA:421,6
DA:422,6
DA:651,6
end_of_record
SF:/usr/include/c++/11/utility
DA:189,88
DA:213,32
end_of_record
SF:/usr/include/c++/11/bits/unordered_map.h
DA:102,10
DA:272,8
DA:880,0
DA:980,196
end_of_record
SF:/usr/include/c++/11/bits/stl_uninitialized.h
DA:91,8
DA:1031,56
end_of_record
SF:/usr/include/c++/11/bits/stl_iterator.h
DA:1028,142
DA:1054,6
DA:1055,60
DA:1068,8
DA:1091,8
DA:1101,32
DA:1271,96
end_of_record
SF:/usr/include/c++/11/tuple
DA:192,48
DA:193,48
DA:236,6
DA:456,48
DA:1816,48
DA:1819,48
DA:1820,40
end_of_record
SF:/usr/include/c++/11/bits/stl_function.h
DA:370,148
end_of_record
SF:/usr/include/c++/11/bits/alloc_traits.h
DA:464,134
DA:496,24
end_of_record
SF:/usr/include/c++/11/bits/hashtable_policy.h
FN:118,_ZNSt8__detail17_ReuseOrAllocNodeISaINS_10_Hash_nodeISt4pairIKiiELb0EEEEED2Ev
FNDA:8,_ZNSt8__detail17_ReuseOrAllocNodeISaINS_10_Hash_nodeISt4pairIKiiELb0EEEEED2Ev
FN:123,_ZNKSt8__detail17_ReuseOrAllocNodeISaINS_10_Hash_nodeISt4pairIKiiELb0EEEEEclIRKS4_EEPS5_OT_
FNDA:32,_ZNKSt8__detail17_ReuseOrAllocNodeISaINS_10_Hash_nodeISt4pairIKiiELb0EEEEEclIRKS4_EEPS5_OT_
FN:696,_ZNSt8__detail9_Map_baseIiSt4pairIKiSt13unordered_mapIiiSt4hashIiESt8equal_toIiESaIS1_IS2_iEEEESaISB_ENS_10_Select1stES7_S5_NS_18_Mod_range_hashingENS_20_Default_ranged_hashENS_20_Prime_rehash_policyENS_17_Hashtable_traitsILb0ELb0ELb1EEELb1EEixERS2_
FNDA:8,_ZNSt8__detail9_Map_baseIiSt4pairIKiSt13unordered_mapIiiSt4hashIiESt8equal_toIiESaIS1_IS2_iEEEESaISB_ENS_10_Select1stES7_S5_NS_18_Mod_range_hashingENS_20_Default_ranged_hashENS_20_Prime_rehash_policyENS_17_Hashtable_traitsILb0ELb0ELb1EEELb1EEixERS2_
FN:696,_ZNSt8__detail9_Map_baseIiSt4pairIKiiESaIS3_ENS_10_Select1stESt8equal_toIiESt4hashIiENS_18_Mod_range_hashingENS_20_Default_ranged_hashENS_20_Prime_rehash_policyENS_17_Hashtable_traitsILb0ELb0ELb1EEELb1EEixERS2_
FNDA:144,_ZNSt8__detail9_Map_baseIiSt4pairIKiiESaIS3_ENS_10_Select1stESt8equal_toIiESt4hashIiENS_18_Mod_range_hashingENS_20_Default_ranged_hashENS_20_Prime_rehash_policyENS_17_Hashtable_traitsILb0ELb0ELb1EEELb1EEixERS2_
FN:696,_ZNSt8__detail9_Map_baseIiSt4pairIKiSt6vectorIS1_IiiESaIS4_EEESaIS7_ENS_10_Select1stESt8equal_toIiESt4hashIiENS_18_Mod_range_hashingENS_20_Default_ranged_hashENS_20_Prime_rehash_policyENS_17_Hashtable_traitsILb0ELb0ELb1EEELb1EEixERS2_
FNDA:44,_ZNSt8__detail9_Map_baseIiSt4pairIKiSt6vectorIS1_IiiESaIS4_EEESaIS7_ENS_10_Select1stESt8equal_toIiESt4hashIiENS_18_Mod_range_hashingENS_20_Default_ranged_hashENS_20_Prime_rehash_policyENS_17_Hashtable_traitsILb0ELb0ELb1EEELb1EEixERS2_
FN:1870,_ZNSt8__detail16_Hashtable_allocISaINS_10_Hash_nodeIiLb0EEEEE16_M_allocate_nodeIJRKiEEEPS2_DpOT_
FNDA:6,_ZNSt8__detail16_Hashtable_allocISaINS_10_Hash_nodeIiLb0EEEEE16_M_allocate_nodeIJRKiEEEPS2_DpOT_
FN:1870,_ZNSt8__detail16_Hashtable_allocISaINS_10_Hash_nodeISt4pairIKiiELb0EEEEE16_M_allocate_nodeIJRKS4_EEEPS5_DpOT_
FNDA:32,_ZNSt8__detail16_Hashtable_allocISaINS_10_Hash_nodeISt4pairIKiiELb0EEEEE16_M_allocate_nodeIJRKS4_EEEPS5_DpOT_
FN:1870,_ZNSt8__detail16_Hashtable_allocISaINS_10_Hash_nodeISt4pairIKiSt13unordered_mapIiiSt4hashIiESt8equal_toIiESaIS2_IS3_iEEEELb0EEEEE16_M_allocate_nodeIJRKSt21piecewise_construct_tSt5tupleIJRS3_EESK_IJEEEEEPSD_DpOT_
FNDA:8,_ZNSt8__detail16_Hashtable_allocISaINS_10_Hash_nodeISt4pairIKiSt13unordered_mapIiiSt4hashIiESt8equal_toIiESaIS2_IS3_iEEEELb0EEEEE16_M_allocate_nodeIJRKSt21piecewise_construct_tSt5tupleIJRS3_EESK_IJEEEEEPSD_DpOT_
FN:1870,_ZNSt8__detail16_Hashtable_allocISaINS_10_Hash_nodeISt4pairIKiiELb0EEEEE16_M_allocate_nodeIJRKSt21piecewise_construct_tSt5tupleIJRS3_EESC_IJEEEEEPS5_DpOT_
FNDA:32,_ZNSt8__detail16_Hashtable_allocISaINS_10_Hash_nodeISt4pairIKiiELb0EEEEE16_M_allocate_nodeIJRKSt21piecewise_construct_tSt5tupleIJRS3_EESC_IJEEEEEPS5_DpOT_
FN:1870,_ZNSt8__detail16_Hashtable_allocISaINS_10_Hash_nodeISt4pairIKiSt6vectorIS2_IiiESaIS5_EEELb0EEEEE16_M_allocate_nodeIJRKSt21piecewise_construct_tSt5tupleIJRS3_EESG_IJEEEEEPS9_DpOT_
FNDA:8,_ZNSt8__detail16_Hashtable_allocISaINS_10_Hash_nodeISt4pairIKiSt6vectorIS2_IiiESaIS5_EEELb0EEEEE16_M_allocate_nodeIJRKSt21piecewise_construct_tSt5tupleIJRS3_EESG_IJEEEEEPS9_DpOT_
FN:1892,_ZNSt8__detail16_Hashtable_allocISaINS_10_Hash_nodeISt4pairIKiSt13unordered_mapIiiSt4hashIiESt8equal_toIiESaIS2_IS3_iEEEELb0EEEEE18_M_deallocate_nodeEPSD_
FNDA:0,_ZNSt8__detail16_Hashtable_allocISaINS_10_Hash_nodeISt4pairIKiSt13unordered_mapIiiSt4hashIiESt8equal_toIiESaIS2_IS3_iEEEELb0EEEEE18_M_deallocate_nodeEPSD_
FN:1910,_ZNSt8__detail16_Hashtable_allocISaINS_10_Hash_nodeISt4pairIKiSt6vectorIS2_IiiESaIS5_EEELb0EEEEE19_M_deallocate_nodesEPS9_
FNDA:2,_ZNSt8__detail16_Hashtable_allocISaINS_10_Hash_nodeISt4pairIKiSt6vectorIS2_IiiESaIS5_EEELb0EEEEE19_M_deallocate_nodesEPS9_
FN:1922,_ZNSt8__detail16_Hashtable_allocISaINS_10_Hash_nodeIiLb0EEEEE19_M_allocate_bucketsEm
FNDA:2,_ZNSt8__detail16_Hashtable_allocISaINS_10_Hash_nodeIiLb0EEEEE19_M_allocate_bucketsEm
FN:1922,_ZNSt8__detail16_Hashtable_allocISaINS_10_Hash_nodeISt4pairIKiSt13unordered_mapIiiSt4hashIiESt8equal_toIiESaIS2_IS3_iEEEELb0EEEEE19_M_allocate_bucketsEm
FNDA:2,_ZNSt8__detail16_Hashtable_allocISaINS_10_Hash_nodeISt4pairIKiSt13unordered_mapIiiSt4hashIiESt8equal_toIiESaIS2_IS3_iEEEELb0EEEEE19_M_allocate_bucketsEm
FN:1922,_ZNSt8__detail16_Hashtable_allocISaINS_10_Hash_nodeISt4pairIKiSt6vectorIS2_IiiESaIS5_EEELb0EEEEE19_M_allocate_bucketsEm
FNDA:2,_ZNSt8__detail16_Hashtable_allocISaINS_10_Hash_nodeISt4pairIKiSt6vectorIS2_IiiESaIS5_EEELb0EEEEE19_M_allocate_bucketsEm
FN:1922,_ZNSt8__detail16_Hashtable_allocISaINS_10_Hash_nodeISt4pairIKiiELb0EEEEE19_M_allocate_bucketsEm
FNDA:16,_ZNSt8__detail16_Hashtable_allocISaINS_10_Hash_nodeISt4pairIKiiELb0EEEEE19_M_allocate_bucketsEm
DA:114,8
DA:115,8
DA:118,8
DA:119,16
DA:123,32
DA:125,32
DA:128,0
DA:129,0
DA:142,0
DA:144,32
DA:162,6
DA:163,6
DA:168,6
DA:219,100
DA:283,40
DA:347,48
DA:353,40
DA:404,80
DA:430,294
DA:447,14
DA:474,62
DA:482,0
DA:696,8
DA:704,0
DA:705,0
DA:710,8
DA:711,8
DA:714,8
DA:715,8
DA:716,8
DA:717,8
DA:696,144
DA:704,112
DA:705,112
DA:710,32
DA:711,32
DA:714,32
DA:715,32
DA:716,32
DA:717,32
DA:696,44
DA:704,36
DA:705,36
DA:710,8
DA:711,8
DA:714,8
DA:715,8
DA:716,8
DA:717,8
DA:844,6
DA:1219,280
DA:1617,148
DA:1870,6
DA:1881,6
DA:1870,32
DA:1881,32
DA:1870,8
DA:1881,8
DA:1870,32
DA:1881,32
DA:1870,8
DA:1881,8
DA:1892,0
DA:1896,14
DA:1904,14
DA:1910,2
DA:1912,26
DA:1916,0
DA:1918,2
DA:1922,2
DA:1929,2
DA:1930,2
DA:1922,2
DA:1929,2
DA:1930,2
DA:1922,2
DA:1929,2
DA:1930,2
DA:1922,16
DA:1929,16
DA:1930,16
DA:1943,12
end_of_record
TN:
SF:/home/aharonba123/Desktop/H.W/Semester_B/Operating_Systems/Final_project/5_pipeline/Client.cpp
FN:8,_ZN6ClientC2Ei
FNDA:0,_ZN6ClientC2Ei
FN:12,_ZN6ClientD2Ev
FNDA:0,_ZN6ClientD2Ev
FN:21,_ZN6Client15connectToServerEv
FNDA:2,_ZN6Client15connectToServerEv
FN:45,_ZN6Client11sendRequestERKNSt7__cxx1112basic_stringIcSt11char_traitsIcESaIcEEE
FNDA:10,_ZN6Client11sendRequestERKNSt7__cxx1112basic_stringIcSt11char_traitsIcESaIcEEE
FN:56,_ZN6Client15receiveResponseB5cxx11Ev
FNDA:2,_ZN6Client15receiveResponseB5cxx11Ev
FN:86,main
FNDA:2,main
DA:8,2
DA:9,2
DA:12,0
DA:14,2
DA:16,2
DA:18,2
DA:21,2
DA:23,2
DA:24,2
DA:26,0
DA:27,0
DA:30,2
DA:31,2
DA:32,2
DA:33,2
DA:36,2
DA:38,0
DA:39,0
DA:45,10
DA:47,10
DA:48,10
DA:50,0
DA:52,10
DA:53,10
DA:56,2
DA:58,2
DA:59,2
DA:61,2
DA:63,0
DA:64,0
DA:67,2
DA:71,4
DA:73,2
DA:74,2
DA:76,0
DA:77,0
DA:79,2
DA:86,2
DA:89,2
DA:90,2
DA:92,2
DA:93,2
DA:95,0
DA:99,2
DA:100,2
DA:105,12
DA:106,12
DA:108,12
DA:110,2
DA:114,10
DA:117,19
DA:119,2
DA:121,4
DA:124,2
end_of_record
SF:/usr/include/aarch64-linux-gnu/bits/socket2.h
DA:36,2
DA:37,2
DA:38,4
DA:39,0
DA:40,0
DA:41,0
end_of_record
SF:/usr/include/c++/11/bits/char_traits.h
DA:357,14
DA:399,0
end_of_record
SF:/usr/include/c++/11/bits/basic_string.tcc
FN:206,_ZNSt7__cxx1112basic_stringIcSt11char_traitsIcESaIcEE12_M_constructIPKcEEvT_S8_St20forward_iterator_tag
FNDA:0,_ZNSt7__cxx1112basic_stringIcSt11char_traitsIcESaIcEE12_M_constructIPKcEEvT_S8_St20forward_iterator_tag
DA:206,0
DA:211,0
DA:212,0
DA:215,0
DA:217,0
DA:219,0
DA:220,0
DA:232,0
DA:233,0
end_of_record
SF:/usr/include/c++/11/bits/stl_iterator_base_funcs.h
DA:104,0
end_of_record
SF:/usr/include/c++/11/iostream
end_of_record
SF:/usr/include/c++/11/bits/basic_string.h
FN:533,_ZNSt7__cxx1112basic_stringIcSt11char_traitsIcESaIcEEC2IS3_EEPKcRKS3_
FNDA:0,_ZNSt7__cxx1112basic_stringIcSt11char_traitsIcESaIcEEC2IS3_EEPKcRKS3_
DA:164,2
DA:165,2
DA:167,12
DA:168,14
DA:187,0
DA:191,14
DA:195,16
DA:201,2
DA:219,0
DA:225,0
DA:406,0
DA:439,12
DA:533,0
DA:536,0
DA:539,0
DA:540,0
DA:553,2
DA:555,2
DA:568,2
DA:576,2
DA:585,2
DA:672,14
DA:921,10
DA:927,2
DA:1062,2
DA:6250,31
DA:6536,2
end_of_record
SF:/usr/include/c++/11/bits/locale_facets.h
FN:875,_ZNKSt5ctypeIcE5widenEc
FNDA:12,_ZNKSt5ctypeIcE5widenEc
FN:1087,_ZNKSt5ctypeIcE8do_widenEc
FNDA:0,_ZNKSt5ctypeIcE8do_widenEc
DA:875,12
DA:877,12
DA:878,12
DA:879,0
DA:880,0
DA:1087,0
DA:1088,0
end_of_record
SF:/usr/include/aarch64-linux-gnu/bits/byteswap.h
DA:37,2
end_of_record
SF:/usr/include/c++/11/ostream
DA:167,0
DA:171,0
end_of_record
TN:
SF:/home/aharonba123/Desktop/H.W/Semester_B/Operating_Systems/Final_project/5_pipeline/PrimSolver.hpp
DA:5,1
end_of_record
SF:/usr/include/c++/11/bits/char_traits.h
DA:357,98
DA:399,20
end_of_record
SF:/usr/include/c++/11/bits/predefined_ops.h
DA:318,2
end_of_record
SF:/usr/include/c++/11/bits/move.h
DA:205,1
DA:206,2
end_of_record
SF:/usr/include/c++/11/bits/functional_hash.h
DA:154,42
end_of_record
SF:/usr/include/c++/11/streambuf
end_of_record
SF:/usr/include/c++/11/initializer_list
DA:71,1
DA:79,1
end_of_record
SF:/usr/include/c++/11/bits/std_thread.h
FN:127,_ZNSt6threadC2IM6ServerFviEJPS1_RiEvEEOT_DpOT0_
FNDA:2,_ZNSt6threadC2IM6ServerFviEJPS1_RiEvEEOT_DpOT0_
FN:211,_ZNSt6thread11_State_implINS_8_InvokerISt5tupleIJM6ServerFviEPS3_iEEEEE6_M_runEv
FNDA:2,_ZNSt6thread11_State_implINS_8_InvokerISt5tupleIJM6ServerFviEPS3_iEEEEE6_M_runEv
DA:86,3
DA:127,2
DA:143,2
DA:146,2
DA:151,4
DA:152,0
DA:153,5
DA:206,2
DA:207,2
DA:211,2
end_of_record
SF:/usr/include/c++/11/bits/charconv.h
FN:47,_ZNSt8__detail14__to_chars_lenIjEEjT_i
FNDA:132,_ZNSt8__detail14__to_chars_lenIjEEjT_i
FN:72,_ZNSt8__detail18__to_chars_10_implIjEEvPcjT_
FNDA:132,_ZNSt8__detail18__to_chars_10_implIjEEvPcjT_
DA:47,132
DA:53,132
DA:54,132
DA:55,132
DA:58,132
DA:59,17
DA:60,1
DA:61,1
DA:62,0
DA:63,0
DA:72,132
DA:83,132
DA:84,133
DA:86,1
DA:87,1
DA:88,1
DA:89,1
DA:90,1
DA:92,132
DA:94,17
DA:95,17
DA:96,17
DA:99,115
DA:100,132
end_of_record
SF:/usr/include/c++/11/bits/hashtable_policy.h
FN:118,_ZNSt8__detail17_ReuseOrAllocNodeISaINS_10_Hash_nodeISt4pairIKiSt13unordered_mapIiiSt4hashIiESt8equal_toIiESaIS2_IS3_iEEEELb0EEEEED2Ev
FNDA:2,_ZNSt8__detail17_ReuseOrAllocNodeISaINS_10_Hash_nodeISt4pairIKiSt13unordered_mapIiiSt4hashIiESt8equal_toIiESaIS2_IS3_iEEEELb0EEEEED2Ev
FN:123,_ZNKSt8__detail17_ReuseOrAllocNodeISaINS_10_Hash_nodeISt4pairIKiSt13unordered_mapIiiSt4hashIiESt8equal_toIiESaIS2_IS3_iEEEELb0EEEEEclIRKSC_EEPSD_OT_
FNDA:8,_ZNKSt8__detail17_ReuseOrAllocNodeISaINS_10_Hash_nodeISt4pairIKiSt13unordered_mapIiiSt4hashIiESt8equal_toIiESaIS2_IS3_iEEEELb0EEEEEclIRKSC_EEPSD_OT_
FN:696,_ZNSt8__detail9_Map_baseIiSt4pairIKiSt5mutexESaIS4_ENS_10_Select1stESt8equal_toIiESt4hashIiENS_18_Mod_range_hashingENS_20_Default_ranged_hashENS_20_Prime_rehash_policyENS_17_Hashtable_traitsILb0ELb0ELb1EEELb1EEixERS2_
FNDA:2,_ZNSt8__detail9_Map_baseIiSt4pairIKiSt5mutexESaIS4_ENS_10_Select1stESt8equal_toIiESt4hashIiENS_18_Mod_range_hashingENS_20_Default_ranged_hashENS_20_Prime_rehash_policyENS_17_Hashtable_traitsILb0ELb0ELb1EEELb1EEixERS2_
FN:1870,_ZNSt8__detail16_Hashtable_allocISaINS_10_Hash_nodeISt4pairIKiiELb0EEEEE16_M_allocate_nodeIJRKS4_EEEPS5_DpOT_
FNDA:32,_ZNSt8__detail16_Hashtable_allocISaINS_10_Hash_nodeISt4pairIKiiELb0EEEEE16_M_allocate_nodeIJRKS4_EEEPS5_DpOT_
FN:1870,_ZNSt8__detail16_Hashtable_allocISaINS_10_Hash_nodeISt4pairIKiSt13unordered_mapIiiSt4hashIiESt8equal_toIiESaIS2_IS3_iEEEELb0EEEEE16_M_allocate_nodeIJRKSC_EEEPSD_DpOT_
FNDA:8,_ZNSt8__detail16_Hashtable_allocISaINS_10_Hash_nodeISt4pairIKiSt13unordered_mapIiiSt4hashIiESt8equal_toIiESaIS2_IS3_iEEEELb0EEEEE16_M_allocate_nodeIJRKSC_EEEPSD_DpOT_
FN:1870,_ZNSt8__detail16_Hashtable_allocISaINS_10_Hash_nodeISt4pairIKiSt5mutexELb0EEEEE16_M_allocate_nodeIJRKSt21piecewise_construct_tSt5tupleIJRS3_EESD_IJEEEEEPS6_DpOT_
FNDA:1,_ZNSt8__detail16_Hashtable_allocISaINS_10_Hash_nodeISt4pairIKiSt5mutexELb0EEEEE16_M_allocate_nodeIJRKSt21piecewise_construct_tSt5tupleIJRS3_EESD_IJEEEEEPS6_DpOT_
FN:1892,_ZNSt8__detail16_Hashtable_allocISaINS_10_Hash_nodeISt4pairIKiSt13unordered_mapIiiSt4hashIiESt8equal_toIiESaIS2_IS3_iEEEELb0EEEEE18_M_deallocate_nodeEPSD_
FNDA:24,_ZNSt8__detail16_Hashtable_allocISaINS_10_Hash_nodeISt4pairIKiSt13unordered_mapIiiSt4hashIiESt8equal_toIiESaIS2_IS3_iEEEELb0EEEEE18_M_deallocate_nodeEPSD_
FN:1922,_ZNSt8__detail16_Hashtable_allocISaINS_10_Hash_nodeISt4pairIKiiELb0EEEEE19_M_allocate_bucketsEm
FNDA:8,_ZNSt8__detail16_Hashtable_allocISaINS_10_Hash_nodeISt4pairIKiiELb0EEEEE19_M_allocate_bucketsEm
FN:1922,_ZNSt8__detail16_Hashtable_allocISaINS_10_Hash_nodeISt4pairIKiSt5mutexELb0EEEEE19_M_allocate_bucketsEm
FNDA:1,_ZNSt8__detail16_Hashtable_allocISaINS_10_Hash_nodeISt4pairIKiSt5mutexELb0EEEEE19_M_allocate_bucketsEm
FN:1922,_ZNSt8__detail16_Hashtable_allocISaINS_10_Hash_nodeISt4pairIKiSt13unordered_mapIiiSt4hashIiESt8equal_toIiESaIS2_IS3_iEEEELb0EEEEE19_M_allocate_bucketsEm
FNDA:2,_ZNSt8__detail16_Hashtable_allocISaINS_10_Hash_nodeISt4pairIKiSt13unordered_mapIiiSt4hashIiESt8equal_toIiESaIS2_IS3_iEEEELb0EEEEE19_M_allocate_bucketsEm
DA:114,2
DA:115,2
DA:118,2
DA:119,4
DA:123,8
DA:125,8
DA:128,0
DA:129,0
DA:137,0
DA:140,0
DA:144,8
DA:162,8
DA:163,8
DA:168,32
DA:219,16
DA:283,40
DA:347,1
DA:353,8
DA:404,32
DA:430,43
DA:447,3
DA:474,3
DA:478,3
DA:482,0
DA:696,2
DA:704,1
DA:705,1
DA:710,1
DA:711,1
DA:714,1
DA:715,1
DA:716,1
DA:717,1
DA:1219,42
DA:1617,1
DA:1870,32
DA:1881,32
DA:1870,8
DA:1881,8
DA:1883,0
DA:1886,0
DA:1870,1
DA:1881,1
DA:1892,24
DA:1896,129
DA:1904,153
DA:1912,199
DA:1916,24
DA:1922,8
DA:1929,8
DA:1930,8
DA:1922,1
DA:1929,1
DA:1930,1
DA:1922,2
DA:1929,2
DA:1930,2
DA:1943,29
end_of_record
SF:/usr/include/c++/11/bits/unordered_map.h
DA:102,25
DA:181,8
DA:980,2
end_of_record
SF:/usr/include/c++/11/bits/stl_iterator.h
DA:1028,6
DA:1033,2
DA:1037,2
DA:1054,6
DA:1055,12
DA:1101,12
DA:1271,12
end_of_record
SF:/home/aharonba123/Desktop/H.W/Semester_B/Operating_Systems/Final_project/5_pipeline/MSTResult.hpp
end_of_record
SF:/usr/include/c++/11/tuple
DA:124,2
DA:189,4
DA:190,1
DA:192,5
DA:193,5
DA:199,15
DA:200,2
DA:233,2
DA:290,15
DA:301,10
DA:387,2
DA:397,0
DA:454,10
DA:456,10
DA:529,0
DA:538,0
DA:1816,5
DA:1819,2
DA:1820,2
end_of_record
SF:/usr/include/c++/11/bits/unique_ptr.h
FN:79,_ZNKSt14default_deleteI6TripleEclEPS0_
FNDA:2,_ZNKSt14default_deleteI6TripleEclEPS0_
FN:165,_ZNSt15__uniq_ptr_implI6TripleSt14default_deleteIS0_EEaSEOS3_
FNDA:2,_ZNSt15__uniq_ptr_implI6TripleSt14default_deleteIS0_EEaSEOS3_
FN:355,_ZNSt10unique_ptrINSt6thread6_StateESt14default_deleteIS1_EED2Ev
FNDA:2,_ZNSt10unique_ptrINSt6thread6_StateESt14default_deleteIS1_EED2Ev
FN:355,_ZNSt10unique_ptrI6TripleSt14default_deleteIS0_EED2Ev
FNDA:4,_ZNSt10unique_ptrI6TripleSt14default_deleteIS0_EED2Ev
FN:355,_ZNSt10unique_ptrI13KruskalSolverSt14default_deleteIS0_EED2Ev
FNDA:1,_ZNSt10unique_ptrI13KruskalSolverSt14default_deleteIS0_EED2Ev
FN:355,_ZNSt10unique_ptrI9MSTSolverSt14default_deleteIS0_EED2Ev
FNDA:3,_ZNSt10unique_ptrI9MSTSolverSt14default_deleteIS0_EED2Ev
FN:355,_ZNSt10unique_ptrI10PrimSolverSt14default_deleteIS0_EED2Ev
FNDA:1,_ZNSt10unique_ptrI10PrimSolverSt14default_deleteIS0_EED2Ev
FN:961,_ZSt11make_uniqueI6TripleJS0_EENSt9_MakeUniqIT_E15__single_objectEDpOT0_
FNDA:2,_ZSt11make_uniqueI6TripleJS0_EENSt9_MakeUniqIT_E15__single_objectEDpOT0_
DA:79,2
DA:85,6
DA:86,2
DA:155,2
DA:165,2
DA:169,2
DA:173,7
DA:179,2
DA:180,2
DA:181,2
DA:182,0
DA:187,2
DA:188,4
DA:212,2
DA:322,1
DA:355,2
DA:360,2
DA:363,2
DA:355,4
DA:360,4
DA:361,2
DA:363,4
DA:355,1
DA:360,1
DA:363,1
DA:355,3
DA:360,3
DA:363,3
DA:355,1
DA:360,1
DA:363,1
DA:961,2
DA:962,4
end_of_record
SF:/usr/include/c++/11/iostream
end_of_record
SF:/usr/include/c++/11/bits/stl_tree.h
FN:609,_ZNSt8_Rb_treeIiSt4pairIKi5GraphESt10_Select1stIS3_ESt4lessIiESaIS3_EE14_M_create_nodeIJRKSt21piecewise_construct_tSt5tupleIJRS1_EESE_IJEEEEEPSt13_Rb_tree_nodeIS3_EDpOT_
FNDA:1,_ZNSt8_Rb_treeIiSt4pairIKi5GraphESt10_Select1stIS3_ESt4lessIiESaIS3_EE14_M_create_nodeIJRKSt21piecewise_construct_tSt5tupleIJRS1_EESE_IJEEEEEPSt13_Rb_tree_nodeIS3_EDpOT_
FN:609,_ZNSt8_Rb_treeIiSt4pairIKi9MSTResultESt10_Select1stIS3_ESt4lessIiESaIS3_EE14_M_create_nodeIJRKSt21piecewise_construct_tSt5tupleIJRS1_EESE_IJEEEEEPSt13_Rb_tree_nodeIS3_EDpOT_
FNDA:1,_ZNSt8_Rb_treeIiSt4pairIKi9MSTResultESt10_Select1stIS3_ESt4lessIiESaIS3_EE14_M_create_nodeIJRKSt21piecewise_construct_tSt5tupleIJRS1_EESE_IJEEEEEPSt13_Rb_tree_nodeIS3_EDpOT_
FN:1252,_ZNSt8_Rb_treeIiSt4pairIKiSt10unique_ptrI6TripleSt14default_deleteIS3_EEESt10_Select1stIS7_ESt4lessIiESaIS7_EE5clearEv
FNDA:3,_ZNSt8_Rb_treeIiSt4pairIKiSt10unique_ptrI6TripleSt14default_deleteIS3_EEESt10_Select1stIS7_ESt4lessIiESaIS7_EE5clearEv
FN:1883,_ZNSt8_Rb_treeIiSt4pairIKi5GraphESt10_Select1stIS3_ESt4lessIiESaIS3_EE8_M_eraseEPSt13_Rb_tree_nodeIS3_E
FNDA:2,_ZNSt8_Rb_treeIiSt4pairIKi5GraphESt10_Select1stIS3_ESt4lessIiESaIS3_EE8_M_eraseEPSt13_Rb_tree_nodeIS3_E
FN:1883,_ZNSt8_Rb_treeIiSt4pairIKi9MSTResultESt10_Select1stIS3_ESt4lessIiESaIS3_EE8_M_eraseEPSt13_Rb_tree_nodeIS3_E
FNDA:2,_ZNSt8_Rb_treeIiSt4pairIKi9MSTResultESt10_Select1stIS3_ESt4lessIiESaIS3_EE8_M_eraseEPSt13_Rb_tree_nodeIS3_E
FN:1883,_ZNSt8_Rb_treeIiSt4pairIKiSt10unique_ptrI6TripleSt14default_deleteIS3_EEESt10_Select1stIS7_ESt4lessIiESaIS7_EE8_M_eraseEPSt13_Rb_tree_nodeIS7_E
FNDA:6,_ZNSt8_Rb_treeIiSt4pairIKiSt10unique_ptrI6TripleSt14default_deleteIS3_EEESt10_Select1stIS7_ESt4lessIiESaIS7_EE8_M_eraseEPSt13_Rb_tree_nodeIS7_E
FN:1966,_ZNSt8_Rb_treeIiSt4pairIKiSt10unique_ptrI6TripleSt14default_deleteIS3_EEESt10_Select1stIS7_ESt4lessIiESaIS7_EE11equal_rangeERS1_
FNDA:3,_ZNSt8_Rb_treeIiSt4pairIKiSt10unique_ptrI6TripleSt14default_deleteIS3_EEESt10_Select1stIS7_ESt4lessIiESaIS7_EE11equal_rangeERS1_
FN:2061,_ZNSt8_Rb_treeIiSt4pairIKi5GraphESt10_Select1stIS3_ESt4lessIiESaIS3_EE24_M_get_insert_unique_posERS1_
FNDA:1,_ZNSt8_Rb_treeIiSt4pairIKi5GraphESt10_Select1stIS3_ESt4lessIiESaIS3_EE24_M_get_insert_unique_posERS1_
FN:2061,_ZNSt8_Rb_treeIiSt4pairIKiSt10unique_ptrI6TripleSt14default_deleteIS3_EEESt10_Select1stIS7_ESt4lessIiESaIS7_EE24_M_get_insert_unique_posERS1_
FNDA:2,_ZNSt8_Rb_treeIiSt4pairIKiSt10unique_ptrI6TripleSt14default_deleteIS3_EEESt10_Select1stIS7_ESt4lessIiESaIS7_EE24_M_get_insert_unique_posERS1_
FN:2061,_ZNSt8_Rb_treeIiSt4pairIKi9MSTResultESt10_Select1stIS3_ESt4lessIiESaIS3_EE24_M_get_insert_unique_posERS1_
FNDA:1,_ZNSt8_Rb_treeIiSt4pairIKi9MSTResultESt10_Select1stIS3_ESt4lessIiESaIS3_EE24_M_get_insert_unique_posERS1_
FN:2163,_ZNSt8_Rb_treeIiSt4pairIKi9MSTResultESt10_Select1stIS3_ESt4lessIiESaIS3_EE29_M_get_insert_hint_unique_posESt23_Rb_tree_const_iteratorIS3_ERS1_
FNDA:1,_ZNSt8_Rb_treeIiSt4pairIKi9MSTResultESt10_Select1stIS3_ESt4lessIiESaIS3_EE29_M_get_insert_hint_unique_posESt23_Rb_tree_const_iteratorIS3_ERS1_
FN:2163,_ZNSt8_Rb_treeIiSt4pairIKi5GraphESt10_Select1stIS3_ESt4lessIiESaIS3_EE29_M_get_insert_hint_unique_posESt23_Rb_tree_const_iteratorIS3_ERS1_
FNDA:1,_ZNSt8_Rb_treeIiSt4pairIKi5GraphESt10_Select1stIS3_ESt4lessIiESaIS3_EE29_M_get_insert_hint_unique_posESt23_Rb_tree_const_iteratorIS3_ERS1_
FN:2163,_ZNSt8_Rb_treeIiSt4pairIKiSt10unique_ptrI6TripleSt14default_deleteIS3_EEESt10_Select1stIS7_ESt4lessIiESaIS7_EE29_M_get_insert_hint_unique_posESt23_Rb_tree_const_iteratorIS7_ERS1_
FNDA:2,_ZNSt8_Rb_treeIiSt4pairIKiSt10unique_ptrI6TripleSt14default_deleteIS3_EEESt10_Select1stIS7_ESt4lessIiESaIS7_EE29_M_get_insert_hint_unique_posESt23_Rb_tree_const_iteratorIS7_ERS1_
FN:2330,_ZNSt8_Rb_treeIiSt4pairIKiSt10unique_ptrI6TripleSt14default_deleteIS3_EEESt10_Select1stIS7_ESt4lessIiESaIS7_EE14_M_insert_nodeEPSt18_Rb_tree_node_baseSF_PSt13_Rb_tree_nodeIS7_E
FNDA:2,_ZNSt8_Rb_treeIiSt4pairIKiSt10unique_ptrI6TripleSt14default_deleteIS3_EEESt10_Select1stIS7_ESt4lessIiESaIS7_EE14_M_insert_nodeEPSt18_Rb_tree_node_baseSF_PSt13_Rb_tree_nodeIS7_E
FN:2330,_ZNSt8_Rb_treeIiSt4pairIKi5GraphESt10_Select1stIS3_ESt4lessIiESaIS3_EE14_M_insert_nodeEPSt18_Rb_tree_node_baseSB_PSt13_Rb_tree_nodeIS3_E
FNDA:1,_ZNSt8_Rb_treeIiSt4pairIKi5GraphESt10_Select1stIS3_ESt4lessIiESaIS3_EE14_M_insert_nodeEPSt18_Rb_tree_node_baseSB_PSt13_Rb_tree_nodeIS3_E
FN:2330,_ZNSt8_Rb_treeIiSt4pairIKi9MSTResultESt10_Select1stIS3_ESt4lessIiESaIS3_EE14_M_insert_nodeEPSt18_Rb_tree_node_baseSB_PSt13_Rb_tree_nodeIS3_E
FNDA:1,_ZNSt8_Rb_treeIiSt4pairIKi9MSTResultESt10_Select1stIS3_ESt4lessIiESaIS3_EE14_M_insert_nodeEPSt18_Rb_tree_node_baseSB_PSt13_Rb_tree_nodeIS3_E
FN:2428,_ZNSt8_Rb_treeIiSt4pairIKiSt10unique_ptrI6TripleSt14default_deleteIS3_EEESt10_Select1stIS7_ESt4lessIiESaIS7_EE22_M_emplace_hint_uniqueIJRKSt21piecewise_construct_tSt5tupleIJRS1_EESI_IJEEEEESt17_Rb_tree_iteratorIS7_ESt23_Rb_tree_const_iteratorIS7_EDpOT_
FNDA:2,_ZNSt8_Rb_treeIiSt4pairIKiSt10unique_ptrI6TripleSt14default_deleteIS3_EEESt10_Select1stIS7_ESt4lessIiESaIS7_EE22_M_emplace_hint_uniqueIJRKSt21piecewise_construct_tSt5tupleIJRS1_EESI_IJEEEEESt17_Rb_tree_iteratorIS7_ESt23_Rb_tree_const_iteratorIS7_EDpOT_
FN:2428,_ZNSt8_Rb_treeIiSt4pairIKi9MSTResultESt10_Select1stIS3_ESt4lessIiESaIS3_EE22_M_emplace_hint_uniqueIJRKSt21piecewise_construct_tSt5tupleIJRS1_EESE_IJEEEEESt17_Rb_tree_iteratorIS3_ESt23_Rb_tree_const_iteratorIS3_EDpOT_
FNDA:1,_ZNSt8_Rb_treeIiSt4pairIKi9MSTResultESt10_Select1stIS3_ESt4lessIiESaIS3_EE22_M_emplace_hint_uniqueIJRKSt21piecewise_construct_tSt5tupleIJRS1_EESE_IJEEEEESt17_Rb_tree_iteratorIS3_ESt23_Rb_tree_const_iteratorIS3_EDpOT_
FN:2428,_ZNSt8_Rb_treeIiSt4pairIKi5GraphESt10_Select1stIS3_ESt4lessIiESaIS3_EE22_M_emplace_hint_uniqueIJRKSt21piecewise_construct_tSt5tupleIJRS1_EESE_IJEEEEESt17_Rb_tree_iteratorIS3_ESt23_Rb_tree_const_iteratorIS3_EDpOT_
FNDA:1,_ZNSt8_Rb_treeIiSt4pairIKi5GraphESt10_Select1stIS3_ESt4lessIiESaIS3_EE22_M_emplace_hint_uniqueIJRKSt21piecewise_construct_tSt5tupleIJRS1_EESE_IJEEEEESt17_Rb_tree_iteratorIS3_ESt23_Rb_tree_const_iteratorIS3_EDpOT_
FN:2480,_ZNSt8_Rb_treeIiSt4pairIKiSt10unique_ptrI6TripleSt14default_deleteIS3_EEESt10_Select1stIS7_ESt4lessIiESaIS7_EE12_M_erase_auxESt23_Rb_tree_const_iteratorIS7_E
FNDA:0,_ZNSt8_Rb_treeIiSt4pairIKiSt10unique_ptrI6TripleSt14default_deleteIS3_EEESt10_Select1stIS7_ESt4lessIiESaIS7_EE12_M_erase_auxESt23_Rb_tree_const_iteratorIS7_E
FN:2494,_ZNSt8_Rb_treeIiSt4pairIKiSt10unique_ptrI6TripleSt14default_deleteIS3_EEESt10_Select1stIS7_ESt4lessIiESaIS7_EE12_M_erase_auxESt23_Rb_tree_const_iteratorIS7_ESF_
FNDA:3,_ZNSt8_Rb_treeIiSt4pairIKiSt10unique_ptrI6TripleSt14default_deleteIS3_EEESt10_Select1stIS7_ESt4lessIiESaIS7_EE12_M_erase_auxESt23_Rb_tree_const_iteratorIS7_ESF_
FN:2507,_ZNSt8_Rb_treeIiSt4pairIKiSt10unique_ptrI6TripleSt14default_deleteIS3_EEESt10_Select1stIS7_ESt4lessIiESaIS7_EE5eraseERS1_
FNDA:3,_ZNSt8_Rb_treeIiSt4pairIKiSt10unique_ptrI6TripleSt14default_deleteIS3_EEESt10_Select1stIS7_ESt4lessIiESaIS7_EE5eraseERS1_
FN:2520,_ZNSt8_Rb_treeIiSt4pairIKi5GraphESt10_Select1stIS3_ESt4lessIiESaIS3_EE4findERS1_
FNDA:3,_ZNSt8_Rb_treeIiSt4pairIKi5GraphESt10_Select1stIS3_ESt4lessIiESaIS3_EE4findERS1_
DA:146,1
DA:174,1
DA:175,1
DA:208,4
DA:209,4
DA:210,4
DA:211,4
DA:287,0
DA:302,0
DA:303,0
DA:350,7
DA:351,4
DA:355,4
DA:376,0
DA:548,4
DA:609,1
DA:613,1
DA:609,1
DA:613,1
DA:624,4
DA:667,1
DA:735,38
DA:750,22
DA:780,25
DA:788,2
DA:984,1
DA:996,7
DA:1004,3
DA:1032,10
DA:1252,3
DA:1254,3
DA:1256,3
DA:1883,6
DA:1887,8
DA:1889,2
DA:1894,6
DA:1883,2
DA:1887,3
DA:1889,1
DA:1894,2
DA:1883,2
DA:1887,3
DA:1889,1
DA:1894,2
DA:1904,48
DA:1905,21
DA:1936,2
DA:1937,0
DA:1966,3
DA:1971,3
DA:1973,2
DA:1975,2
DA:1985,2
DA:1989,1
DA:2061,2
DA:2068,2
DA:2072,0
DA:2075,2
DA:2077,2
DA:2078,2
DA:2082,0
DA:2083,0
DA:2084,0
DA:2061,1
DA:2068,1
DA:2072,0
DA:2075,1
DA:2077,1
DA:2078,1
DA:2082,0
DA:2083,0
DA:2084,0
DA:2061,1
DA:2068,1
DA:2072,0
DA:2075,1
DA:2077,1
DA:2078,1
DA:2082,0
DA:2083,0
DA:2084,0
DA:2163,2
DA:2171,2
DA:2174,2
DA:2175,0
DA:2177,2
DA:2179,0
DA:2183,0
DA:2184,0
DA:2185,0
DA:2187,0
DA:2188,0
DA:2190,0
DA:2193,0
DA:2195,0
DA:2199,0
DA:2200,0
DA:2201,0
DA:2203,0
DA:2204,0
DA:2206,0
DA:2209,0
DA:2213,0
DA:2163,1
DA:2171,1
DA:2174,1
DA:2175,0
DA:2177,1
DA:2179,0
DA:2183,0
DA:2184,0
DA:2185,0
DA:2187,0
DA:2188,0
DA:2190,0
DA:2193,0
DA:2195,0
DA:2199,0
DA:2200,0
DA:2201,0
DA:2203,0
DA:2204,0
DA:2206,0
DA:2209,0
DA:2213,0
DA:2163,1
DA:2171,1
DA:2174,1
DA:2175,0
DA:2177,1
DA:2179,0
DA:2183,0
DA:2184,0
DA:2185,0
DA:2187,0
DA:2188,0
DA:2190,0
DA:2193,0
DA:2195,0
DA:2199,0
DA:2200,0
DA:2201,0
DA:2203,0
DA:2204,0
DA:2206,0
DA:2209,0
DA:2213,0
DA:2330,2
DA:2333,2
DA:2334,2
DA:2337,2
DA:2338,2
DA:2339,2
DA:2340,2
DA:2330,1
DA:2333,1
DA:2334,1
DA:2337,1
DA:2338,1
DA:2339,1
DA:2340,1
DA:2330,1
DA:2333,1
DA:2334,1
DA:2337,1
DA:2338,1
DA:2339,1
DA:2340,1
DA:2428,2
DA:2435,2
DA:2437,2
DA:2438,2
DA:2441,0
DA:2428,1
DA:2431,1
DA:2435,1
DA:2437,1
DA:2438,1
DA:2441,0
DA:2428,1
DA:2431,1
DA:2435,1
DA:2437,1
DA:2438,1
DA:2441,0
DA:2480,0
DA:2485,0
DA:2486,0
DA:2488,0
DA:2489,0
DA:2494,3
DA:2497,3
DA:2498,3
DA:2500,0
DA:2501,0
DA:2502,3
DA:2507,3
DA:2510,3
DA:2512,3
DA:2513,3
DA:2520,3
DA:2525,3
DA:2526,6
end_of_record
SF:/usr/include/c++/11/bits/basic_string.tcc
FN:206,_ZNSt7__cxx1112basic_stringIcSt11char_traitsIcESaIcEE12_M_constructIPcEEvT_S7_St20forward_iterator_tag
FNDA:5,_ZNSt7__cxx1112basic_stringIcSt11char_traitsIcESaIcEE12_M_constructIPcEEvT_S7_St20forward_iterator_tag
FN:206,_ZNSt7__cxx1112basic_stringIcSt11char_traitsIcESaIcEE12_M_constructIPKcEEvT_S8_St20forward_iterator_tag
FNDA:27,_ZNSt7__cxx1112basic_stringIcSt11char_traitsIcESaIcEE12_M_constructIPKcEEvT_S8_St20forward_iterator_tag
FN:1169,_ZStplIcSt11char_traitsIcESaIcEENSt7__cxx1112basic_stringIT_T0_T1_EEPKS5_RKS8_
FNDA:3,_ZStplIcSt11char_traitsIcESaIcEENSt7__cxx1112basic_stringIT_T0_T1_EEPKS5_RKS8_
DA:206,5
DA:211,5
DA:212,0
DA:215,5
DA:217,5
DA:219,0
DA:220,0
DA:232,5
DA:233,5
DA:206,27
DA:211,27
DA:212,0
DA:215,27
DA:217,27
DA:219,9
DA:220,9
DA:232,27
DA:233,27
DA:1169,3
DA:1181,3
DA:1182,3
DA:1184,3
end_of_record
SF:/usr/include/c++/11/bits/stl_iterator_base_funcs.h
DA:104,33
end_of_record
SF:/home/aharonba123/Desktop/H.W/Semester_B/Operating_Systems/Final_project/5_pipeline/Server.cpp
FN:18,_Z13initializePAOv
FNDA:1,_Z13initializePAOv
FN:21,_ZZ13initializePAOvENKUlPvE_clES_
FNDA:2,_ZZ13initializePAOvENKUlPvE_clES_
FN:29,_ZZ13initializePAOvENKUlPvE0_clES_
FNDA:2,_ZZ13initializePAOvENKUlPvE0_clES_
FN:37,_ZZ13initializePAOvENKUlPvE1_clES_
FNDA:2,_ZZ13initializePAOvENKUlPvE1_clES_
FN:45,_ZZ13initializePAOvENKUlPvE2_clES_
FNDA:2,_ZZ13initializePAOvENKUlPvE2_clES_
FN:61,_ZZ13initializePAOvENKUlPvE3_clES_
FNDA:2,_ZZ13initializePAOvENKUlPvE3_clES_
FN:89,_ZN6ServerC2Ei
FNDA:1,_ZN6ServerC2Ei
FN:94,_ZN6ServerD2Ev
FNDA:1,_ZN6ServerD2Ev
FN:102,_ZN6Server5startEv
FNDA:1,_ZN6Server5startEv
FN:165,_ZN6Server4stopEv
FNDA:1,_ZN6Server4stopEv
FN:186,_ZN6Server12handleClientEi
FNDA:2,_ZN6Server12handleClientEi
FN:205,_ZN6Server14processRequestEiRKNSt7__cxx1112basic_stringIcSt11char_traitsIcESaIcEEE
FNDA:10,_ZN6Server14processRequestEiRKNSt7__cxx1112basic_stringIcSt11char_traitsIcESaIcEEE
FN:243,_ZN6Server8addGraphEii
FNDA:1,_ZN6Server8addGraphEii
FN:257,_ZN6Server7addEdgeEiiii
FNDA:5,_ZN6Server7addEdgeEiiii
FN:270,_ZN6Server10removeEdgeEiii
FNDA:1,_ZN6Server10removeEdgeEiii
FN:283,_ZN6Server20solveMSTWithPipelineEi16MSTAlgorithmTypeNSt7__cxx1112basic_stringIcSt11char_traitsIcESaIcEEE
FNDA:3,_ZN6Server20solveMSTWithPipelineEi16MSTAlgorithmTypeNSt7__cxx1112basic_stringIcSt11char_traitsIcESaIcEEE
FN:328,main
FNDA:1,main
DA:18,1
DA:21,2
DA:24,2
DA:26,4
DA:28,2
DA:29,2
DA:32,2
DA:34,4
DA:36,2
DA:37,2
DA:40,2
DA:42,4
DA:44,2
DA:45,2
DA:48,2
DA:50,2
DA:51,10
DA:53,40
DA:55,64
DA:56,64
DA:60,2
DA:61,2
DA:64,2
DA:65,8
DA:67,6
DA:70,2
DA:73,2
DA:75,2
DA:76,2
DA:78,4
DA:79,8
DA:81,1
DA:82,1
DA:83,1
DA:89,1
DA:94,1
DA:96,1
DA:97,1
DA:102,1
DA:106,1
DA:107,1
DA:109,0
DA:110,0
DA:113,1
DA:114,1
DA:116,1
DA:117,1
DA:119,1
DA:121,1
DA:123,0
DA:124,0
DA:125,0
DA:128,1
DA:130,0
DA:131,0
DA:132,0
DA:135,2
DA:139,3
DA:140,3
DA:142,3
DA:144,1
DA:145,1
DA:147,4
DA:148,2
DA:149,2
DA:151,2
DA:153,3
DA:155,2
DA:157,2
DA:165,1
DA:167,1
DA:169,1
DA:170,1
DA:173,3
DA:175,2
DA:177,0
DA:180,1
DA:186,2
DA:191,14
DA:193,10
DA:194,20
DA:197,2
DA:198,2
DA:205,10
DA:207,10
DA:209,10
DA:211,10
DA:214,1
DA:215,1
DA:217,9
DA:220,5
DA:221,5
DA:223,4
DA:226,1
DA:227,1
DA:229,3
DA:232,3
DA:233,3
DA:234,6
DA:236,10
DA:243,1
DA:245,1
DA:246,1
DA:247,2
DA:248,1
DA:257,5
DA:259,5
DA:260,5
DA:261,10
DA:262,5
DA:270,1
DA:272,1
DA:273,1
DA:274,2
DA:275,1
DA:283,3
DA:285,3
DA:286,3
DA:287,3
DA:289,6
DA:291,3
DA:293,0
DA:297,3
DA:301,3
DA:303,3
DA:307,2
DA:308,2
DA:310,4
DA:312,4
DA:314,2
DA:315,2
DA:317,4
DA:318,2
DA:321,2
DA:323,3
DA:328,1
DA:331,1
DA:332,1
DA:334,1
DA:336,1
DA:337,1
DA:339,1
DA:342,1
end_of_record
SF:/usr/include/c++/11/bits/hashtable.h
FN:308,_ZNSt10_HashtableIiSt4pairIKiSt5mutexESaIS3_ENSt8__detail10_Select1stESt8equal_toIiESt4hashIiENS5_18_Mod_range_hashingENS5_20_Default_ranged_hashENS5_20_Prime_rehash_policyENS5_17_Hashtable_traitsILb0ELb0ELb1EEEE12_Scoped_nodeD2Ev
FNDA:1,_ZNSt10_HashtableIiSt4pairIKiSt5mutexESaIS3_ENSt8__detail10_Select1stESt8equal_toIiESt4hashIiENS5_18_Mod_range_hashingENS5_20_Default_ranged_hashENS5_20_Prime_rehash_policyENS5_17_Hashtable_traitsILb0ELb0ELb1EEEE12_Scoped_nodeD2Ev
FN:407,_ZNSt10_HashtableIiSt4pairIKiiESaIS2_ENSt8__detail10_Select1stESt8equal_toIiESt4hashIiENS4_18_Mod_range_hashingENS4_20_Default_ranged_hashENS4_20_Prime_rehash_policyENS4_17_Hashtable_traitsILb0ELb0ELb1EEEE16_M_update_bbeginEv
FNDA:8,_ZNSt10_HashtableIiSt4pairIKiiESaIS2_ENSt8__detail10_Select1stESt8equal_toIiESt4hashIiENS4_18_Mod_range_hashingENS4_20_Default_ranged_hashENS4_20_Prime_rehash_policyENS4_17_Hashtable_traitsILb0ELb0ELb1EEEE16_M_update_bbeginEv
FN:407,_ZNSt10_HashtableIiSt4pairIKiSt13unordered_mapIiiSt4hashIiESt8equal_toIiESaIS0_IS1_iEEEESaISA_ENSt8__detail10_Select1stES6_S4_NSC_18_Mod_range_hashingENSC_20_Default_ranged_hashENSC_20_Prime_rehash_policyENSC_17_Hashtable_traitsILb0ELb0ELb1EEEE16_M_update_bbeginEv
FNDA:5,_ZNSt10_HashtableIiSt4pairIKiSt13unordered_mapIiiSt4hashIiESt8equal_toIiESaIS0_IS1_iEEEESaISA_ENSt8__detail10_Select1stES6_S4_NSC_18_Mod_range_hashingENSC_20_Default_ranged_hashENSC_20_Prime_rehash_policyENSC_17_Hashtable_traitsILb0ELb0ELb1EEEE16_M_update_bbeginEv
FN:453,_ZNSt10_HashtableIiSt4pairIKiSt5mutexESaIS3_ENSt8__detail10_Select1stESt8equal_toIiESt4hashIiENS5_18_Mod_range_hashingENS5_20_Default_ranged_hashENS5_20_Prime_rehash_policyENS5_17_Hashtable_traitsILb0ELb0ELb1EEEE21_M_deallocate_bucketsEv
FNDA:2,_ZNSt10_HashtableIiSt4pairIKiSt5mutexESaIS3_ENSt8__detail10_Select1stESt8equal_toIiESt4hashIiENS5_18_Mod_range_hashingENS5_20_Default_ranged_hashENS5_20_Prime_rehash_policyENS5_17_Hashtable_traitsILb0ELb0ELb1EEEE21_M_deallocate_bucketsEv
FN:453,_ZNSt10_HashtableIiSt4pairIKiiESaIS2_ENSt8__detail10_Select1stESt8equal_toIiESt4hashIiENS4_18_Mod_range_hashingENS4_20_Default_ranged_hashENS4_20_Prime_rehash_policyENS4_17_Hashtable_traitsILb0ELb0ELb1EEEE21_M_deallocate_bucketsEv
FNDA:24,_ZNSt10_HashtableIiSt4pairIKiiESaIS2_ENSt8__detail10_Select1stESt8equal_toIiESt4hashIiENS4_18_Mod_range_hashingENS4_20_Default_ranged_hashENS4_20_Prime_rehash_policyENS4_17_Hashtable_traitsILb0ELb0ELb1EEEE21_M_deallocate_bucketsEv
FN:453,_ZNSt10_HashtableIiSt4pairIKiSt13unordered_mapIiiSt4hashIiESt8equal_toIiESaIS0_IS1_iEEEESaISA_ENSt8__detail10_Select1stES6_S4_NSC_18_Mod_range_hashingENSC_20_Default_ranged_hashENSC_20_Prime_rehash_policyENSC_17_Hashtable_traitsILb0ELb0ELb1EEEE21_M_deallocate_bucketsEv
FNDA:9,_ZNSt10_HashtableIiSt4pairIKiSt13unordered_mapIiiSt4hashIiESt8equal_toIiESaIS0_IS1_iEEEESaISA_ENSt8__detail10_Select1stES6_S4_NSC_18_Mod_range_hashingENSC_20_Default_ranged_hashENSC_20_Prime_rehash_policyENSC_17_Hashtable_traitsILb0ELb0ELb1EEEE21_M_deallocate_bucketsEv
FN:1238,_ZNSt10_HashtableIiSt4pairIKiSt13unordered_mapIiiSt4hashIiESt8equal_toIiESaIS0_IS1_iEEEESaISA_ENSt8__detail10_Select1stES6_S4_NSC_18_Mod_range_hashingENSC_20_Default_ranged_hashENSC_20_Prime_rehash_policyENSC_17_Hashtable_traitsILb0ELb0ELb1EEEE18_M_assign_elementsIRKSJ_EEvOT_
FNDA:2,_ZNSt10_HashtableIiSt4pairIKiSt13unordered_mapIiiSt4hashIiESt8equal_toIiESaIS0_IS1_iEEEESaISA_ENSt8__detail10_Select1stES6_S4_NSC_18_Mod_range_hashingENSC_20_Default_ranged_hashENSC_20_Prime_rehash_policyENSC_17_Hashtable_traitsILb0ELb0ELb1EEEE18_M_assign_elementsIRKSJ_EEvOT_
FN:1289,_ZNSt10_HashtableIiSt4pairIKiiESaIS2_ENSt8__detail10_Select1stESt8equal_toIiESt4hashIiENS4_18_Mod_range_hashingENS4_20_Default_ranged_hashENS4_20_Prime_rehash_policyENS4_17_Hashtable_traitsILb0ELb0ELb1EEEE9_M_assignIRKSF_NS4_10_AllocNodeISaINS4_10_Hash_nodeIS2_Lb0EEEEEEEEvOT_RKT0_
FNDA:8,_ZNSt10_HashtableIiSt4pairIKiiESaIS2_ENSt8__detail10_Select1stESt8equal_toIiESt4hashIiENS4_18_Mod_range_hashingENS4_20_Default_ranged_hashENS4_20_Prime_rehash_policyENS4_17_Hashtable_traitsILb0ELb0ELb1EEEE9_M_assignIRKSF_NS4_10_AllocNodeISaINS4_10_Hash_nodeIS2_Lb0EEEEEEEEvOT_RKT0_
FN:1289,_ZNSt10_HashtableIiSt4pairIKiSt13unordered_mapIiiSt4hashIiESt8equal_toIiESaIS0_IS1_iEEEESaISA_ENSt8__detail10_Select1stES6_S4_NSC_18_Mod_range_hashingENSC_20_Default_ranged_hashENSC_20_Prime_rehash_policyENSC_17_Hashtable_traitsILb0ELb0ELb1EEEE9_M_assignIRKSJ_NSC_17_ReuseOrAllocNodeISaINSC_10_Hash_nodeISA_Lb0EEEEEEEEvOT_RKT0_
FNDA:2,_ZNSt10_HashtableIiSt4pairIKiSt13unordered_mapIiiSt4hashIiESt8equal_toIiESaIS0_IS1_iEEEESaISA_ENSt8__detail10_Select1stES6_S4_NSC_18_Mod_range_hashingENSC_20_Default_ranged_hashENSC_20_Prime_rehash_policyENSC_17_Hashtable_traitsILb0ELb0ELb1EEEE9_M_assignIRKSJ_NSC_17_ReuseOrAllocNodeISaINSC_10_Hash_nodeISA_Lb0EEEEEEEEvOT_RKT0_
FN:1354,_ZNSt10_HashtableIiSt4pairIKiSt13unordered_mapIiiSt4hashIiESt8equal_toIiESaIS0_IS1_iEEEESaISA_ENSt8__detail10_Select1stES6_S4_NSC_18_Mod_range_hashingENSC_20_Default_ranged_hashENSC_20_Prime_rehash_policyENSC_17_Hashtable_traitsILb0ELb0ELb1EEEE14_M_move_assignEOSJ_St17integral_constantIbLb1EE
FNDA:3,_ZNSt10_HashtableIiSt4pairIKiSt13unordered_mapIiiSt4hashIiESt8equal_toIiESaIS0_IS1_iEEEESaISA_ENSt8__detail10_Select1stES6_S4_NSC_18_Mod_range_hashingENSC_20_Default_ranged_hashENSC_20_Prime_rehash_policyENSC_17_Hashtable_traitsILb0ELb0ELb1EEEE14_M_move_assignEOSJ_St17integral_constantIbLb1EE
FN:1406,_ZNSt10_HashtableIiSt4pairIKiiESaIS2_ENSt8__detail10_Select1stESt8equal_toIiESt4hashIiENS4_18_Mod_range_hashingENS4_20_Default_ranged_hashENS4_20_Prime_rehash_policyENS4_17_Hashtable_traitsILb0ELb0ELb1EEEEC2ERKSF_
FNDA:8,_ZNSt10_HashtableIiSt4pairIKiiESaIS2_ENSt8__detail10_Select1stESt8equal_toIiESt4hashIiENS4_18_Mod_range_hashingENS4_20_Default_ranged_hashENS4_20_Prime_rehash_policyENS4_17_Hashtable_traitsILb0ELb0ELb1EEEEC2ERKSF_
FN:1827,_ZNKSt10_HashtableIiSt4pairIKiSt5mutexESaIS3_ENSt8__detail10_Select1stESt8equal_toIiESt4hashIiENS5_18_Mod_range_hashingENS5_20_Default_ranged_hashENS5_20_Prime_rehash_policyENS5_17_Hashtable_traitsILb0ELb0ELb1EEEE19_M_find_before_nodeEmRS1_m
FNDA:2,_ZNKSt10_HashtableIiSt4pairIKiSt5mutexESaIS3_ENSt8__detail10_Select1stESt8equal_toIiESt4hashIiENS5_18_Mod_range_hashingENS5_20_Default_ranged_hashENS5_20_Prime_rehash_policyENS5_17_Hashtable_traitsILb0ELb0ELb1EEEE19_M_find_before_nodeEmRS1_m
FN:1886,_ZNSt10_HashtableIiSt4pairIKiSt5mutexESaIS3_ENSt8__detail10_Select1stESt8equal_toIiESt4hashIiENS5_18_Mod_range_hashingENS5_20_Default_ranged_hashENS5_20_Prime_rehash_policyENS5_17_Hashtable_traitsILb0ELb0ELb1EEEE22_M_insert_bucket_beginEmPNS5_10_Hash_nodeIS3_Lb0EEE
FNDA:1,_ZNSt10_HashtableIiSt4pairIKiSt5mutexESaIS3_ENSt8__detail10_Select1stESt8equal_toIiESt4hashIiENS5_18_Mod_range_hashingENS5_20_Default_ranged_hashENS5_20_Prime_rehash_policyENS5_17_Hashtable_traitsILb0ELb0ELb1EEEE22_M_insert_bucket_beginEmPNS5_10_Hash_nodeIS3_Lb0EEE
FN:2008,_ZNSt10_HashtableIiSt4pairIKiSt5mutexESaIS3_ENSt8__detail10_Select1stESt8equal_toIiESt4hashIiENS5_18_Mod_range_hashingENS5_20_Default_ranged_hashENS5_20_Prime_rehash_policyENS5_17_Hashtable_traitsILb0ELb0ELb1EEEE21_M_insert_unique_nodeEmmPNS5_10_Hash_nodeIS3_Lb0EEEm
FNDA:1,_ZNSt10_HashtableIiSt4pairIKiSt5mutexESaIS3_ENSt8__detail10_Select1stESt8equal_toIiESt4hashIiENS5_18_Mod_range_hashingENS5_20_Default_ranged_hashENS5_20_Prime_rehash_policyENS5_17_Hashtable_traitsILb0ELb0ELb1EEEE21_M_insert_unique_nodeEmmPNS5_10_Hash_nodeIS3_Lb0EEEm
FN:2316,_ZNSt10_HashtableIiSt4pairIKiiESaIS2_ENSt8__detail10_Select1stESt8equal_toIiESt4hashIiENS4_18_Mod_range_hashingENS4_20_Default_ranged_hashENS4_20_Prime_rehash_policyENS4_17_Hashtable_traitsILb0ELb0ELb1EEEE5clearEv
FNDA:32,_ZNSt10_HashtableIiSt4pairIKiiESaIS2_ENSt8__detail10_Select1stESt8equal_toIiESt4hashIiENS4_18_Mod_range_hashingENS4_20_Default_ranged_hashENS4_20_Prime_rehash_policyENS4_17_Hashtable_traitsILb0ELb0ELb1EEEE5clearEv
FN:2316,_ZNSt10_HashtableIiSt4pairIKiSt13unordered_mapIiiSt4hashIiESt8equal_toIiESaIS0_IS1_iEEEESaISA_ENSt8__detail10_Select1stES6_S4_NSC_18_Mod_range_hashingENSC_20_Default_ranged_hashENSC_20_Prime_rehash_policyENSC_17_Hashtable_traitsILb0ELb0ELb1EEEE5clearEv
FNDA:8,_ZNSt10_HashtableIiSt4pairIKiSt13unordered_mapIiiSt4hashIiESt8equal_toIiESaIS0_IS1_iEEEESaISA_ENSt8__detail10_Select1stES6_S4_NSC_18_Mod_range_hashingENSC_20_Default_ranged_hashENSC_20_Prime_rehash_policyENSC_17_Hashtable_traitsILb0ELb0ELb1EEEE5clearEv
FN:2316,_ZNSt10_HashtableIiSt4pairIKiSt5mutexESaIS3_ENSt8__detail10_Select1stESt8equal_toIiESt4hashIiENS5_18_Mod_range_hashingENS5_20_Default_ranged_hashENS5_20_Prime_rehash_policyENS5_17_Hashtable_traitsILb0ELb0ELb1EEEE5clearEv
FNDA:1,_ZNSt10_HashtableIiSt4pairIKiSt5mutexESaIS3_ENSt8__detail10_Select1stESt8equal_toIiESt4hashIiENS5_18_Mod_range_hashingENS5_20_Default_ranged_hashENS5_20_Prime_rehash_policyENS5_17_Hashtable_traitsILb0ELb0ELb1EEEE5clearEv
FN:2355,_ZNSt10_HashtableIiSt4pairIKiSt5mutexESaIS3_ENSt8__detail10_Select1stESt8equal_toIiESt4hashIiENS5_18_Mod_range_hashingENS5_20_Default_ranged_hashENS5_20_Prime_rehash_policyENS5_17_Hashtable_traitsILb0ELb0ELb1EEEE9_M_rehashEmRKm
FNDA:1,_ZNSt10_HashtableIiSt4pairIKiSt5mutexESaIS3_ENSt8__detail10_Select1stESt8equal_toIiESt4hashIiENS5_18_Mod_range_hashingENS5_20_Default_ranged_hashENS5_20_Prime_rehash_policyENS5_17_Hashtable_traitsILb0ELb0ELb1EEEE9_M_rehashEmRKm
FN:2378,_ZNSt10_HashtableIiSt4pairIKiSt5mutexESaIS3_ENSt8__detail10_Select1stESt8equal_toIiESt4hashIiENS5_18_Mod_range_hashingENS5_20_Default_ranged_hashENS5_20_Prime_rehash_policyENS5_17_Hashtable_traitsILb0ELb0ELb1EEEE13_M_rehash_auxEmSt17integral_constantIbLb1EE
FNDA:1,_ZNSt10_HashtableIiSt4pairIKiSt5mutexESaIS3_ENSt8__detail10_Select1stESt8equal_toIiESt4hashIiENS5_18_Mod_range_hashingENS5_20_Default_ranged_hashENS5_20_Prime_rehash_policyENS5_17_Hashtable_traitsILb0ELb0ELb1EEEE13_M_rehash_auxEmSt17integral_constantIbLb1EE
DA:302,1
DA:303,1
DA:304,1
DA:308,1
DA:407,8
DA:409,8
DA:410,8
DA:411,8
DA:407,5
DA:409,5
DA:410,2
DA:411,5
DA:416,10
DA:417,10
DA:422,40
DA:426,3
DA:434,11
DA:436,0
DA:437,0
DA:440,11
DA:446,2
DA:453,24
DA:454,24
DA:453,9
DA:454,9
DA:453,2
DA:454,2
DA:463,26
DA:528,3
DA:791,10
DA:795,3
DA:810,2
DA:811,2
DA:812,1
DA:1238,2
DA:1243,2
DA:1246,2
DA:1248,2
DA:1249,2
DA:1250,2
DA:1253,0
DA:1259,2
DA:1260,2
DA:1262,2
DA:1263,2
DA:1264,2
DA:1266,2
DA:1267,0
DA:1269,0
DA:1272,0
DA:1274,0
DA:1275,0
DA:1277,0
DA:1278,0
DA:1279,0
DA:1281,2
DA:1289,8
DA:1294,8
DA:1295,16
DA:1299,8
DA:1312,32
DA:1315,24
DA:1318,24
DA:1319,24
DA:1323,0
DA:1325,0
DA:1326,0
DA:1327,0
DA:1328,0
DA:1289,2
DA:1294,2
DA:1295,0
DA:1299,2
DA:1306,2
DA:1312,8
DA:1314,6
DA:1315,6
DA:1318,6
DA:1319,6
DA:1323,0
DA:1325,0
DA:1326,0
DA:1327,0
DA:1328,0
DA:1342,3
DA:1343,3
DA:1344,3
DA:1345,3
DA:1346,3
DA:1347,3
DA:1354,3
DA:1358,3
DA:1362,3
DA:1364,3
DA:1365,3
DA:1366,0
DA:1369,3
DA:1370,3
DA:1373,3
DA:1374,3
DA:1375,3
DA:1379,3
DA:1406,8
DA:1415,8
DA:1416,8
DA:1417,8
DA:1418,8
DA:1421,8
DA:1422,8
DA:1532,25
DA:1533,25
DA:1827,2
DA:1833,2
DA:1834,2
DA:1837,1
DA:1841,1
DA:1843,0
DA:1886,1
DA:1890,1
DA:1894,0
DA:1895,0
DA:1902,1
DA:1903,1
DA:1905,1
DA:1908,0
DA:1910,1
DA:1912,1
DA:2008,1
DA:2014,1
DA:2016,1
DA:2019,1
DA:2021,1
DA:2028,1
DA:2029,1
DA:2030,1
DA:2316,32
DA:2321,32
DA:2322,32
DA:2323,32
DA:2324,32
DA:2325,32
DA:2316,8
DA:2321,8
DA:2322,8
DA:2323,8
DA:2324,8
DA:2325,8
DA:2316,1
DA:2321,1
DA:2322,1
DA:2323,1
DA:2324,1
DA:2325,1
DA:2355,1
DA:2361,1
DA:2363,0
DA:2367,0
DA:2368,0
DA:2370,1
DA:2378,1
DA:2384,1
DA:2386,1
DA:2391,0
DA:2393,0
DA:2394,0
DA:2395,0
DA:2396,0
DA:2397,0
DA:2402,0
DA:2403,0
DA:2409,1
DA:2410,1
DA:2411,1
DA:2412,1
end_of_record
SF:/usr/include/aarch64-linux-gnu/c++/11/bits/gthr-default.h
DA:749,40
DA:779,34
end_of_record
SF:/home/aharonba123/Desktop/H.W/Semester_B/Operating_Systems/Final_project/5_pipeline/KruskalSolver.hpp
DA:5,1
end_of_record
SF:/usr/include/c++/11/bits/invoke.h
FN:71,_ZSt13__invoke_implIvM6ServerFviEPS0_JiEET_St21__invoke_memfun_derefOT0_OT1_DpOT2_
FNDA:2,_ZSt13__invoke_implIvM6ServerFviEPS0_JiEET_St21__invoke_memfun_derefOT0_OT1_DpOT2_
DA:61,10
DA:71,2
DA:74,2
DA:96,2
end_of_record
SF:/usr/include/c++/11/bits/alloc_traits.h
DA:464,68
DA:496,13
DA:520,8
end_of_record
SF:/usr/include/c++/11/bits/stl_uninitialized.h
FN:85,_ZNSt20__uninitialized_copyILb0EE13__uninit_copyIPKSt8functionIFvPvEEPS5_EET0_T_SA_S9_
FNDA:1,_ZNSt20__uninitialized_copyILb0EE13__uninit_copyIPKSt8functionIFvPvEEPS5_EET0_T_SA_S9_
DA:85,1
DA:91,14
DA:93,1
DA:95,0
DA:98,0
DA:151,1
DA:1031,29
end_of_record
SF:/usr/include/c++/11/bits/stl_construct.h
FN:160,_ZNSt12_Destroy_auxILb0EE9__destroyIPSt6threadEEvT_S4_
FNDA:1,_ZNSt12_Destroy_auxILb0EE9__destroyIPSt6threadEEvT_S4_
DA:119,5
DA:120,5
DA:160,1
DA:162,9
DA:164,1
DA:196,1
end_of_record
SF:/home/aharonba123/Desktop/H.W/Semester_B/Operating_Systems/Final_project/5_pipeline/Server.hpp
FN:29,_Z9safePrintRKNSt7__cxx1112basic_stringIcSt11char_traitsIcESaIcEEE
FNDA:22,_Z9safePrintRKNSt7__cxx1112basic_stringIcSt11char_traitsIcESaIcEEE
DA:14,2
DA:29,22
DA:33,22
end_of_record
SF:/usr/include/c++/11/bits/locale_facets.h
FN:875,_ZNKSt5ctypeIcE5widenEc
FNDA:22,_ZNKSt5ctypeIcE5widenEc
FN:1087,_ZNKSt5ctypeIcE8do_widenEc
FNDA:1,_ZNKSt5ctypeIcE8do_widenEc
DA:875,22
DA:877,22
DA:878,21
DA:879,1
DA:880,1
DA:1087,1
DA:1088,1
end_of_record
SF:/usr/include/c++/11/bits/vector.tcc
FN:109,_ZNSt6vectorISt6threadSaIS0_EE12emplace_backIJS0_EEERS0_DpOT_
FNDA:2,_ZNSt6vectorISt6threadSaIS0_EE12emplace_backIJS0_EEERS0_DpOT_
FN:109,_ZNSt6vectorISt5tupleIJiiiiEESaIS1_EE12emplace_backIJRiS5_S5_S5_EEERS1_DpOT_
FNDA:10,_ZNSt6vectorISt5tupleIJiiiiEESaIS1_EE12emplace_backIJRiS5_S5_S5_EEERS1_DpOT_
FN:184,_ZNSt6vectorISt5tupleIJiiiiEESaIS1_EE8_M_eraseEN9__gnu_cxx17__normal_iteratorIPS1_S3_EES7_
FNDA:1,_ZNSt6vectorISt5tupleIJiiiiEESaIS1_EE8_M_eraseEN9__gnu_cxx17__normal_iteratorIPS1_S3_EES7_
FN:198,_ZNSt6vectorISt5tupleIJiiiiEESaIS1_EEaSERKS3_
FNDA:2,_ZNSt6vectorISt5tupleIJiiiiEESaIS1_EEaSERKS3_
FN:426,_ZNSt6vectorISt6threadSaIS0_EE17_M_realloc_insertIJS0_EEEvN9__gnu_cxx17__normal_iteratorIPS0_S2_EEDpOT_
FNDA:2,_ZNSt6vectorISt6threadSaIS0_EE17_M_realloc_insertIJS0_EEEvN9__gnu_cxx17__normal_iteratorIPS0_S2_EEDpOT_
FN:426,_ZNSt6vectorISt5tupleIJiiiiEESaIS1_EE17_M_realloc_insertIJRiS5_S5_S5_EEEvN9__gnu_cxx17__normal_iteratorIPS1_S3_EEDpOT_
FNDA:7,_ZNSt6vectorISt5tupleIJiiiiEESaIS1_EE17_M_realloc_insertIJRiS5_S5_S5_EEEvN9__gnu_cxx17__normal_iteratorIPS1_S3_EEDpOT_
DA:109,2
DA:112,2
DA:117,0
DA:121,2
DA:123,2
DA:109,10
DA:112,10
DA:117,6
DA:121,4
DA:123,10
DA:184,1
DA:187,1
DA:189,1
DA:191,1
DA:193,1
DA:198,2
DA:201,2
DA:224,2
DA:226,2
DA:228,2
DA:231,2
DA:232,2
DA:233,2
DA:234,2
DA:236,0
DA:243,0
DA:250,2
DA:252,2
DA:426,2
DA:436,2
DA:437,2
DA:438,2
DA:449,2
DA:450,2
DA:464,2
DA:501,2
DA:502,2
DA:503,2
DA:504,2
DA:505,2
DA:426,7
DA:436,7
DA:437,7
DA:438,7
DA:449,7
DA:450,7
DA:464,7
DA:501,7
DA:502,7
DA:503,7
DA:504,7
DA:505,7
end_of_record
SF:/home/aharonba123/Desktop/H.W/Semester_B/Operating_Systems/Final_project/5_pipeline/MSTFactory.hpp
FN:17,_ZN10MSTFactory12createSolverE16MSTAlgorithmType
FNDA:3,_ZN10MSTFactory12createSolverE16MSTAlgorithmType
DA:17,3
DA:19,3
DA:21,1
DA:22,1
DA:23,1
DA:24,1
DA:25,1
DA:26,1
DA:27,1
DA:28,1
end_of_record
SF:/usr/include/c++/11/ext/new_allocator.h
FN:103,_ZN9__gnu_cxx13new_allocatorINSt8__detail10_Hash_nodeISt4pairIKiiELb0EEEE8allocateEmPKv
FNDA:32,_ZN9__gnu_cxx13new_allocatorINSt8__detail10_Hash_nodeISt4pairIKiiELb0EEEE8allocateEmPKv
FN:103,_ZN9__gnu_cxx13new_allocatorISt13_Rb_tree_nodeISt4pairIKiSt10unique_ptrI6TripleSt14default_deleteIS5_EEEEE8allocateEmPKv
FNDA:2,_ZN9__gnu_cxx13new_allocatorISt13_Rb_tree_nodeISt4pairIKiSt10unique_ptrI6TripleSt14default_deleteIS5_EEEEE8allocateEmPKv
FN:103,_ZN9__gnu_cxx13new_allocatorINSt8__detail10_Hash_nodeISt4pairIKiSt13unordered_mapIiiSt4hashIiESt8equal_toIiESaIS3_IS4_iEEEELb0EEEE8allocateEmPKv
FNDA:8,_ZN9__gnu_cxx13new_allocatorINSt8__detail10_Hash_nodeISt4pairIKiSt13unordered_mapIiiSt4hashIiESt8equal_toIiESaIS3_IS4_iEEEELb0EEEE8allocateEmPKv
FN:103,_ZN9__gnu_cxx13new_allocatorIPNSt8__detail15_Hash_node_baseEE8allocateEmPKv
FNDA:11,_ZN9__gnu_cxx13new_allocatorIPNSt8__detail15_Hash_node_baseEE8allocateEmPKv
FN:103,_ZN9__gnu_cxx13new_allocatorINSt8__detail10_Hash_nodeISt4pairIKiSt5mutexELb0EEEE8allocateEmPKv
FNDA:1,_ZN9__gnu_cxx13new_allocatorINSt8__detail10_Hash_nodeISt4pairIKiSt5mutexELb0EEEE8allocateEmPKv
FN:103,_ZN9__gnu_cxx13new_allocatorISt13_Rb_tree_nodeISt4pairIKi9MSTResultEEE8allocateEmPKv
FNDA:1,_ZN9__gnu_cxx13new_allocatorISt13_Rb_tree_nodeISt4pairIKi9MSTResultEEE8allocateEmPKv
FN:103,_ZN9__gnu_cxx13new_allocatorISt13_Rb_tree_nodeISt4pairIKi5GraphEEE8allocateEmPKv
FNDA:1,_ZN9__gnu_cxx13new_allocatorISt13_Rb_tree_nodeISt4pairIKi5GraphEEE8allocateEmPKv
FN:103,_ZN9__gnu_cxx13new_allocatorISt6threadE8allocateEmPKv
FNDA:2,_ZN9__gnu_cxx13new_allocatorISt6threadE8allocateEmPKv
FN:103,_ZN9__gnu_cxx13new_allocatorISt8functionIFvPvEEE8allocateEmPKv
FNDA:1,_ZN9__gnu_cxx13new_allocatorISt8functionIFvPvEEE8allocateEmPKv
FN:103,_ZN9__gnu_cxx13new_allocatorISt5tupleIJiiiiEEE8allocateEmPKv
FNDA:9,_ZN9__gnu_cxx13new_allocatorISt5tupleIJiiiiEEE8allocateEmPKv
DA:103,32
DA:111,32
DA:115,0
DA:116,0
DA:117,0
DA:127,32
DA:103,2
DA:111,2
DA:115,0
DA:116,0
DA:117,0
DA:127,2
DA:103,8
DA:111,8
DA:115,0
DA:116,0
DA:117,0
DA:127,8
DA:103,11
DA:111,11
DA:115,0
DA:116,0
DA:117,0
DA:127,11
DA:103,1
DA:111,1
DA:115,0
DA:116,0
DA:117,0
DA:127,1
DA:103,1
DA:111,1
DA:115,0
DA:116,0
DA:117,0
DA:127,1
DA:103,1
DA:111,1
DA:115,0
DA:116,0
DA:117,0
DA:127,1
DA:103,2
DA:111,2
DA:115,0
DA:116,0
DA:117,0
DA:127,2
DA:103,1
DA:111,1
DA:115,0
DA:116,0
DA:117,0
DA:127,1
DA:103,9
DA:111,9
DA:115,0
DA:116,0
DA:117,0
DA:127,9
DA:145,199
DA:168,10
end_of_record
SF:/usr/include/c++/11/bits/stl_pair.h
DA:211,3
DA:314,8
end_of_record
SF:/usr/include/c++/11/ext/string_conversions.h
FN:99,_ZN9__gnu_cxx12__to_xstringINSt7__cxx1112basic_stringIcSt11char_traitsIcESaIcEEEcEET_PFiPT0_mPKS8_St9__va_listEmSB_z
FNDA:2,_ZN9__gnu_cxx12__to_xstringINSt7__cxx1112basic_stringIcSt11char_traitsIcESaIcEEEcEET_PFiPT0_mPKS8_St9__va_listEmSB_z
DA:99,2
DA:105,2
DA:109,2
DA:111,2
DA:113,2
DA:115,2
end_of_record
SF:/usr/include/c++/11/bits/stl_map.h
FN:492,_ZNSt3mapIiSt10unique_ptrI6TripleSt14default_deleteIS1_EESt4lessIiESaISt4pairIKiS4_EEEixERS8_
FNDA:4,_ZNSt3mapIiSt10unique_ptrI6TripleSt14default_deleteIS1_EESt4lessIiESaISt4pairIKiS4_EEEixERS8_
FN:492,_ZNSt3mapIi9MSTResultSt4lessIiESaISt4pairIKiS0_EEEixERS4_
FNDA:7,_ZNSt3mapIi9MSTResultSt4lessIiESaISt4pairIKiS0_EEEixERS4_
FN:492,_ZNSt3mapIi5GraphSt4lessIiESaISt4pairIKiS0_EEEixERS4_
FNDA:11,_ZNSt3mapIi5GraphSt4lessIiESaISt4pairIKiS0_EEEixERS4_
DA:302,1
DA:492,4
DA:499,4
DA:501,2
DA:502,2
DA:503,2
DA:507,4
DA:492,7
DA:499,7
DA:501,1
DA:502,1
DA:503,1
DA:507,7
DA:492,11
DA:499,11
DA:501,1
DA:502,1
DA:503,1
DA:507,11
DA:1069,3
DA:1170,3
end_of_record
SF:/usr/include/c++/11/ostream
DA:113,22
end_of_record
SF:/usr/include/c++/11/bits/stl_function.h
DA:370,1
DA:400,44
DA:1175,4
end_of_record
SF:/usr/include/aarch64-linux-gnu/bits/unistd.h
DA:38,12
end_of_record
SF:/usr/include/c++/11/bits/stl_algobase.h
FN:380,_ZNSt11__copy_moveILb0ELb0ESt26random_access_iterator_tagE8__copy_mIPSt5tupleIJiiiiEES5_EET0_T_S7_S6_
FNDA:0,_ZNSt11__copy_moveILb0ELb0ESt26random_access_iterator_tagE8__copy_mIPSt5tupleIJiiiiEES5_EET0_T_S7_S6_
FN:380,_ZNSt11__copy_moveILb0ELb0ESt26random_access_iterator_tagE8__copy_mIPKSt5tupleIJiiiiEEPS4_EET0_T_S9_S8_
FNDA:0,_ZNSt11__copy_moveILb0ELb0ESt26random_access_iterator_tagE8__copy_mIPKSt5tupleIJiiiiEEPS4_EET0_T_S9_S8_
FN:400,_ZNSt11__copy_moveILb1ELb0ESt26random_access_iterator_tagE8__copy_mIPSt5tupleIJiiiiEES5_EET0_T_S7_S6_
FNDA:0,_ZNSt11__copy_moveILb1ELb0ESt26random_access_iterator_tagE8__copy_mIPSt5tupleIJiiiiEES5_EET0_T_S7_S6_
FN:2061,_ZSt9__find_ifIN9__gnu_cxx17__normal_iteratorIPSt5tupleIJiiiiEESt6vectorIS3_SaIS3_EEEENS0_5__ops10_Iter_predIZN5Graph10removeEdgeEiiEUlRKS3_E_EEET_SG_SG_T0_St26random_access_iterator_tag
FNDA:1,_ZSt9__find_ifIN9__gnu_cxx17__normal_iteratorIPSt5tupleIJiiiiEESt6vectorIS3_SaIS3_EEEENS0_5__ops10_Iter_predIZN5Graph10removeEdgeEiiEUlRKS3_E_EEET_SG_SG_T0_St26random_access_iterator_tag
DA:259,9
DA:260,3
DA:380,0
DA:383,0
DA:386,0
DA:387,0
DA:389,0
DA:380,0
DA:383,0
DA:386,0
DA:387,0
DA:389,0
DA:400,0
DA:403,0
DA:406,0
DA:407,0
DA:409,0
DA:495,0
DA:2061,1
DA:2065,1
DA:2067,1
DA:2069,0
DA:2070,0
DA:2073,0
DA:2074,0
DA:2077,0
DA:2078,0
DA:2081,0
DA:2082,0
DA:2086,1
DA:2088,0
DA:2089,0
DA:2090,0
DA:2093,1
DA:2094,1
DA:2095,1
DA:2098,0
DA:2099,0
DA:2100,0
DA:2103,0
DA:2105,0
DA:2114,1
end_of_record
SF:/usr/include/c++/11/bits/stl_vector.h
FN:333,_ZNSt12_Vector_baseISt8functionIFvPvEESaIS3_EED2Ev
FNDA:1,_ZNSt12_Vector_baseISt8functionIFvPvEESaIS3_EED2Ev
FN:333,_ZNSt12_Vector_baseISt6threadSaIS0_EED2Ev
FNDA:1,_ZNSt12_Vector_baseISt6threadSaIS0_EED2Ev
FN:333,_ZNSt12_Vector_baseISt5tupleIJiiiiEESaIS1_EED2Ev
FNDA:12,_ZNSt12_Vector_baseISt5tupleIJiiiiEESaIS1_EED2Ev
FN:625,_ZNSt6vectorISt8functionIFvPvEESaIS3_EEC2ESt16initializer_listIS3_ERKS4_
FNDA:1,_ZNSt6vectorISt8functionIFvPvEESaIS3_EEC2ESt16initializer_listIS3_ERKS4_
FN:678,_ZNSt6vectorISt6threadSaIS0_EED2Ev
FNDA:1,_ZNSt6vectorISt6threadSaIS0_EED2Ev
FN:678,_ZNSt6vectorISt8functionIFvPvEESaIS3_EED2Ev
FNDA:1,_ZNSt6vectorISt8functionIFvPvEESaIS3_EED2Ev
FN:1508,_ZNSt6vectorISt5tupleIJiiiiEESaIS1_EE20_M_allocate_and_copyIN9__gnu_cxx17__normal_iteratorIPKS1_S3_EEEEPS1_mT_SB_
FNDA:2,_ZNSt6vectorISt5tupleIJiiiiEESaIS1_EE20_M_allocate_and_copyIN9__gnu_cxx17__normal_iteratorIPKS1_S3_EEEEPS1_mT_SB_
FN:1577,_ZNSt6vectorISt8functionIFvPvEESaIS3_EE19_M_range_initializeIPKS3_EEvT_S9_St20forward_iterator_tag
FNDA:1,_ZNSt6vectorISt8functionIFvPvEESaIS3_EE19_M_range_initializeIPKS3_EEvT_S9_St20forward_iterator_tag
FN:1756,_ZNKSt6vectorISt6threadSaIS0_EE12_M_check_lenEmPKc
FNDA:2,_ZNKSt6vectorISt6threadSaIS0_EE12_M_check_lenEmPKc
FN:1756,_ZNKSt6vectorISt5tupleIJiiiiEESaIS1_EE12_M_check_lenEmPKc
FNDA:7,_ZNKSt6vectorISt5tupleIJiiiiEESaIS1_EE12_M_check_lenEmPKc
FN:1815,_ZNSt6vectorISt5tupleIJiiiiEESaIS1_EE14_M_move_assignEOS3_St17integral_constantIbLb1EE
FNDA:4,_ZNSt6vectorISt5tupleIJiiiiEESaIS1_EE14_M_move_assignEOS3_St17integral_constantIbLb1EE
DA:97,12
DA:98,4
DA:111,4
DA:112,4
DA:113,4
DA:277,1
DA:333,1
DA:335,1
DA:336,1
DA:337,1
DA:333,1
DA:335,1
DA:336,1
DA:337,1
DA:333,12
DA:335,12
DA:336,12
DA:337,12
DA:346,12
DA:353,25
DA:625,1
DA:627,1
DA:629,1
DA:631,1
DA:678,1
DA:680,1
DA:683,1
DA:678,1
DA:680,1
DA:683,1
DA:683,2
DA:714,1
DA:919,0
DA:999,2
DA:1000,2
DA:1204,2
DA:1461,1
DA:1508,2
DA:1516,2
DA:1577,1
DA:1580,1
DA:1582,1
DA:1583,1
DA:1584,1
DA:1588,1
DA:1756,2
DA:1758,2
DA:1759,0
DA:1761,2
DA:1762,2
DA:1756,7
DA:1758,7
DA:1759,0
DA:1761,7
DA:1762,7
DA:1769,1
DA:1770,0
DA:1794,1
DA:1798,1
DA:1815,4
DA:1821,4
end_of_record
SF:/usr/include/c++/11/sstream
DA:918,2
end_of_record
SF:/usr/include/c++/11/bits/atomic_base.h
DA:385,3
end_of_record
SF:/usr/include/c++/11/bits/std_function.h
FN:241,_ZNSt14_Function_baseD2Ev
FNDA:10,_ZNSt14_Function_baseD2Ev
FN:267,_ZNSt17_Function_handlerIFvPvEZ13initializePAOvEUlS0_E3_E10_M_managerERSt9_Any_dataRKS4_St18_Manager_operation
FNDA:5,_ZNSt17_Function_handlerIFvPvEZ13initializePAOvEUlS0_E3_E10_M_managerERSt9_Any_dataRKS4_St18_Manager_operation
FN:267,_ZNSt17_Function_handlerIFvPvEZ13initializePAOvEUlS0_E2_E10_M_managerERSt9_Any_dataRKS4_St18_Manager_operation
FNDA:5,_ZNSt17_Function_handlerIFvPvEZ13initializePAOvEUlS0_E2_E10_M_managerERSt9_Any_dataRKS4_St18_Manager_operation
FN:267,_ZNSt17_Function_handlerIFvPvEZ13initializePAOvEUlS0_E1_E10_M_managerERSt9_Any_dataRKS4_St18_Manager_operation
FNDA:5,_ZNSt17_Function_handlerIFvPvEZ13initializePAOvEUlS0_E1_E10_M_managerERSt9_Any_dataRKS4_St18_Manager_operation
FN:267,_ZNSt17_Function_handlerIFvPvEZ13initializePAOvEUlS0_E0_E10_M_managerERSt9_Any_dataRKS4_St18_Manager_operation
FNDA:5,_ZNSt17_Function_handlerIFvPvEZ13initializePAOvEUlS0_E0_E10_M_managerERSt9_Any_dataRKS4_St18_Manager_operation
FN:267,_ZNSt17_Function_handlerIFvPvEZ13initializePAOvEUlS0_E_E10_M_managerERSt9_Any_dataRKS4_St18_Manager_operation
FNDA:5,_ZNSt17_Function_handlerIFvPvEZ13initializePAOvEUlS0_E_E10_M_managerERSt9_Any_dataRKS4_St18_Manager_operation
FN:288,_ZNSt17_Function_handlerIFvPvEZ13initializePAOvEUlS0_E3_E9_M_invokeERKSt9_Any_dataOS0_
FNDA:2,_ZNSt17_Function_handlerIFvPvEZ13initializePAOvEUlS0_E3_E9_M_invokeERKSt9_Any_dataOS0_
FN:288,_ZNSt17_Function_handlerIFvPvEZ13initializePAOvEUlS0_E2_E9_M_invokeERKSt9_Any_dataOS0_
FNDA:2,_ZNSt17_Function_handlerIFvPvEZ13initializePAOvEUlS0_E2_E9_M_invokeERKSt9_Any_dataOS0_
FN:288,_ZNSt17_Function_handlerIFvPvEZ13initializePAOvEUlS0_E1_E9_M_invokeERKSt9_Any_dataOS0_
FNDA:2,_ZNSt17_Function_handlerIFvPvEZ13initializePAOvEUlS0_E1_E9_M_invokeERKSt9_Any_dataOS0_
FN:288,_ZNSt17_Function_handlerIFvPvEZ13initializePAOvEUlS0_E0_E9_M_invokeERKSt9_Any_dataOS0_
FNDA:2,_ZNSt17_Function_handlerIFvPvEZ13initializePAOvEUlS0_E0_E9_M_invokeERKSt9_Any_dataOS0_
FN:288,_ZNSt17_Function_handlerIFvPvEZ13initializePAOvEUlS0_E_E9_M_invokeERKSt9_Any_dataOS0_
FNDA:2,_ZNSt17_Function_handlerIFvPvEZ13initializePAOvEUlS0_E_E9_M_invokeERKSt9_Any_dataOS0_
FN:386,_ZNSt8functionIFvPvEEC2ERKS2_
FNDA:5,_ZNSt8functionIFvPvEEC2ERKS2_
DA:86,10
DA:241,10
DA:243,10
DA:244,10
DA:245,10
DA:247,5
DA:267,5
DA:270,5
DA:274,0
DA:275,0
DA:278,0
DA:279,0
DA:284,5
DA:267,5
DA:270,5
DA:274,0
DA:275,0
DA:278,0
DA:279,0
DA:284,5
DA:267,5
DA:270,5
DA:274,0
DA:275,0
DA:278,0
DA:279,0
DA:284,5
DA:267,5
DA:270,5
DA:274,0
DA:275,0
DA:278,0
DA:279,0
DA:284,5
DA:267,5
DA:270,5
DA:274,0
DA:275,0
DA:278,0
DA:279,0
DA:284,5
DA:288,2
DA:291,2
DA:288,2
DA:291,2
DA:288,2
DA:291,2
DA:288,2
DA:291,2
DA:288,2
DA:291,2
DA:334,10
DA:386,5
DA:387,5
DA:389,5
DA:391,5
DA:392,5
DA:393,5
DA:395,5
DA:435,1
DA:437,1
DA:451,1
DA:452,1
end_of_record
SF:/home/aharonba123/Desktop/H.W/Semester_B/Operating_Systems/Final_project/5_pipeline/MSTAlgorithmType.hpp
FN:14,_Z21stringToAlgorithmTypeRKNSt7__cxx1112basic_stringIcSt11char_traitsIcESaIcEEE
FNDA:3,_Z21stringToAlgorithmTypeRKNSt7__cxx1112basic_stringIcSt11char_traitsIcESaIcEEE
DA:14,3
DA:16,3
DA:18,2
DA:19,1
end_of_record
SF:/home/aharonba123/Desktop/H.W/Semester_B/Operating_Systems/Final_project/5_pipeline/Graph.hpp
FN:19,_ZN5Graph7addEdgeEiii
FNDA:5,_ZN5Graph7addEdgeEiii
FN:27,_ZN5Graph10removeEdgeEii
FNDA:1,_ZN5Graph10removeEdgeEii
FN:30,_ZZN5Graph10removeEdgeEiiENKUlRKSt5tupleIJiiiiEEE_clES3_
FNDA:2,_ZZN5Graph10removeEdgeEiiENKUlRKSt5tupleIJiiiiEEE_clES3_
DA:7,1
DA:15,1
DA:16,1
DA:19,5
DA:21,5
DA:22,5
DA:23,5
DA:24,5
DA:27,1
DA:29,1
DA:30,2
DA:34,2
DA:37,1
DA:41,2
DA:46,2
end_of_record
SF:/usr/include/c++/11/bits/stl_algo.h
FN:813,_ZSt11__remove_ifIN9__gnu_cxx17__normal_iteratorIPSt5tupleIJiiiiEESt6vectorIS3_SaIS3_EEEENS0_5__ops10_Iter_predIZN5Graph10removeEdgeEiiEUlRKS3_E_EEET_SG_SG_T0_
FNDA:1,_ZSt11__remove_ifIN9__gnu_cxx17__normal_iteratorIPSt5tupleIJiiiiEESt6vectorIS3_SaIS3_EEEENS0_5__ops10_Iter_predIZN5Graph10removeEdgeEiiEUlRKS3_E_EEET_SG_SG_T0_
DA:813,1
DA:816,1
DA:817,1
DA:818,0
DA:821,2
DA:822,1
DA:827,1
DA:894,1
end_of_record
SF:/usr/include/aarch64-linux-gnu/bits/byteswap.h
DA:37,1
end_of_record
SF:/usr/include/c++/11/bits/std_mutex.h
FN:98,_ZNSt5mutex4lockEv
FNDA:40,_ZNSt5mutex4lockEv
DA:65,1
DA:98,40
DA:100,40
DA:103,40
DA:104,0
DA:105,40
DA:118,12
DA:229,34
end_of_record
SF:/usr/include/c++/11/ext/aligned_buffer.h
DA:104,40
end_of_record
SF:/usr/include/c++/11/bits/basic_string.h
FN:533,_ZNSt7__cxx1112basic_stringIcSt11char_traitsIcESaIcEEC2IS3_EEPKcRKS3_
FNDA:17,_ZNSt7__cxx1112basic_stringIcSt11char_traitsIcESaIcEEC2IS3_EEPKcRKS3_
FN:1491,_ZNSt7__cxx1112basic_stringIcSt11char_traitsIcESaIcEE6assignIPcvEERS4_T_S8_
FNDA:2,_ZNSt7__cxx1112basic_stringIcSt11char_traitsIcESaIcEE6assignIPcvEERS4_T_S8_
FN:6172,_ZStplIcSt11char_traitsIcESaIcEENSt7__cxx1112basic_stringIT_T0_T1_EEOS8_S9_
FNDA:82,_ZStplIcSt11char_traitsIcESaIcEENSt7__cxx1112basic_stringIT_T0_T1_EEOS8_S9_
FN:6194,_ZStplIcSt11char_traitsIcESaIcEENSt7__cxx1112basic_stringIT_T0_T1_EEPKS5_OS8_
FNDA:52,_ZStplIcSt11char_traitsIcESaIcEENSt7__cxx1112basic_stringIT_T0_T1_EEPKS5_OS8_
FN:6206,_ZStplIcSt11char_traitsIcESaIcEENSt7__cxx1112basic_stringIT_T0_T1_EEOS8_PKS5_
FNDA:125,_ZStplIcSt11char_traitsIcESaIcEENSt7__cxx1112basic_stringIT_T0_T1_EEOS8_PKS5_
FN:6660,_ZNSt7__cxx119to_stringEi
FNDA:132,_ZNSt7__cxx119to_stringEi
DA:164,17
DA:165,154
DA:167,13
DA:168,272
DA:187,9
DA:191,307
DA:195,2
DA:201,3
DA:211,351
DA:219,9
DA:225,32
DA:255,2
DA:401,5
DA:406,27
DA:439,13
DA:533,17
DA:536,17
DA:539,17
DA:540,17
DA:555,132
DA:568,259
DA:576,68
DA:585,82
DA:672,84
DA:833,2
DA:921,5
DA:927,82
DA:978,23
DA:1062,132
DA:1161,38
DA:1170,2
DA:1214,123
DA:1491,2
DA:1492,2
DA:1661,0
DA:6172,82
DA:6185,82
DA:6186,92
DA:6194,52
DA:6196,52
DA:6206,125
DA:6208,125
DA:6250,31
DA:6536,24
DA:6660,132
DA:6662,132
DA:6663,132
DA:6664,132
DA:6665,132
DA:6666,132
DA:6667,132
DA:6735,2
end_of_record
TN:
SF:/usr/include/c++/11/bits/stl_numeric.h
DA:97,5
DA:99,4
DA:100,4
end_of_record
SF:/home/aharonba123/Desktop/H.W/Semester_B/Operating_Systems/Final_project/5_pipeline/union_find.cpp
FN:9,_ZN9UnionFindC2Ei
FNDA:1,_ZN9UnionFindC2Ei
FN:18,_ZN9UnionFind11find_parentEi
FNDA:25,_ZN9UnionFind11find_parentEi
FN:24,_ZN9UnionFind5uniteEii
FNDA:8,_ZN9UnionFind5uniteEii
DA:9,1
DA:11,1
DA:12,1
DA:13,1
DA:14,1
DA:16,1
DA:18,25
DA:20,25
DA:21,25
DA:24,8
DA:26,8
DA:27,8
DA:28,8
DA:29,3
DA:31,2
DA:32,3
DA:33,3
DA:34,3
end_of_record
SF:/usr/include/c++/11/bits/stl_vector.h
FN:333,_ZNSt12_Vector_baseIiSaIiEED2Ev
FNDA:1,_ZNSt12_Vector_baseIiSaIiEED2Ev
FN:359,_ZNSt12_Vector_baseIiSaIiEE17_M_create_storageEm
FNDA:1,_ZNSt12_Vector_baseIiSaIiEE17_M_create_storageEm
FN:522,_ZNSt6vectorIiSaIiEEC2EmRKiRKS0_
FNDA:1,_ZNSt6vectorIiSaIiEEC2EmRKiRKS0_
FN:937,_ZNSt6vectorIiSaIiEE6resizeEm
FNDA:1,_ZNSt6vectorIiSaIiEE6resizeEm
FN:1756,_ZNKSt6vectorIiSaIiEE12_M_check_lenEmPKc
FNDA:1,_ZNKSt6vectorIiSaIiEE12_M_check_lenEmPKc
DA:97,2
DA:98,1
DA:111,1
DA:112,1
DA:113,1
DA:277,1
DA:305,1
DA:333,1
DA:335,1
DA:336,1
DA:337,1
DA:346,2
DA:353,2
DA:359,1
DA:361,1
DA:362,1
DA:363,1
DA:364,1
DA:522,1
DA:524,1
DA:525,1
DA:683,1
DA:750,1
DA:919,1
DA:937,1
DA:939,1
DA:940,1
DA:941,0
DA:942,0
DA:943,1
DA:999,1
DA:1000,1
DA:1046,37
DA:1595,1
DA:1596,1
DA:1756,1
DA:1758,1
DA:1759,0
DA:1761,1
DA:1762,1
DA:1769,1
DA:1770,0
DA:1794,0
DA:1798,0
end_of_record
SF:/usr/include/c++/11/bits/stl_algobase.h
DA:259,1
DA:260,1
DA:922,1
DA:923,9
DA:924,7
DA:1115,2
DA:1120,2
end_of_record
SF:/usr/include/c++/11/ext/new_allocator.h
FN:103,_ZN9__gnu_cxx13new_allocatorIiE8allocateEmPKv
FNDA:2,_ZN9__gnu_cxx13new_allocatorIiE8allocateEmPKv
DA:103,2
DA:111,2
DA:115,0
DA:116,0
DA:117,0
DA:127,2
DA:145,0
end_of_record
SF:/usr/include/c++/11/bits/vector.tcc
FN:257,_ZNSt6vectorIiSaIiEE14_M_fill_assignEmRKi
FNDA:1,_ZNSt6vectorIiSaIiEE14_M_fill_assignEmRKi
FN:611,_ZNSt6vectorIiSaIiEE17_M_default_appendEm
FNDA:1,_ZNSt6vectorIiSaIiEE17_M_default_appendEm
DA:257,1
DA:260,1
DA:262,1
DA:265,0
DA:268,0
DA:270,0
DA:277,1
DA:611,1
DA:614,1
DA:617,1
DA:618,1
DA:620,1
DA:621,0
DA:623,1
DA:626,0
DA:634,1
DA:640,2
DA:648,1
DA:676,1
DA:677,1
DA:678,1
DA:679,1
DA:680,1
DA:683,1
end_of_record
SF:/usr/include/c++/11/bits/stl_uninitialized.h
FN:595,_ZNSt27__uninitialized_default_n_1ILb1EE18__uninit_default_nIPimEET_S3_T0_
FNDA:1,_ZNSt27__uninitialized_default_n_1ILb1EE18__uninit_default_nIPimEET_S3_T0_
DA:595,1
DA:597,1
DA:602,1
DA:603,1
DA:605,1
DA:640,0
DA:1009,1
DA:1010,1
DA:1011,0
end_of_record
SF:/usr/include/c++/11/bits/alloc_traits.h
DA:464,2
DA:496,0
end_of_record
SF:/usr/include/c++/11/bits/stl_iterator.h
DA:1028,1
DA:1054,4
DA:1055,4
end_of_record
TN:
SF:/usr/include/c++/11/bits/vector.tcc
FN:109,_ZNSt6vectorISt5tupleIJiiiiEESaIS1_EE12emplace_backIJRKiS6_S6_S6_EEERS1_DpOT_
FNDA:3,_ZNSt6vectorISt5tupleIJiiiiEESaIS1_EE12emplace_backIJRKiS6_S6_S6_EEERS1_DpOT_
FN:426,_ZNSt6vectorISt5tupleIJiiiiEESaIS1_EE17_M_realloc_insertIJRKiS6_S6_S6_EEEvN9__gnu_cxx17__normal_iteratorIPS1_S3_EEDpOT_
FNDA:3,_ZNSt6vectorISt5tupleIJiiiiEESaIS1_EE17_M_realloc_insertIJRKiS6_S6_S6_EEEvN9__gnu_cxx17__normal_iteratorIPS1_S3_EEDpOT_
DA:109,3
DA:112,3
DA:117,0
DA:121,3
DA:123,3
DA:426,3
DA:436,3
DA:437,3
DA:438,3
DA:449,3
DA:450,3
DA:464,3
DA:501,3
DA:502,3
DA:503,3
DA:504,3
DA:505,3
end_of_record
SF:/usr/include/c++/11/bits/stl_pair.h
DA:314,4
end_of_record
SF:/usr/include/c++/11/ext/new_allocator.h
FN:103,_ZN9__gnu_cxx13new_allocatorINSt8__detail10_Hash_nodeISt4pairIKiiELb0EEEE8allocateEmPKv
FNDA:16,_ZN9__gnu_cxx13new_allocatorINSt8__detail10_Hash_nodeISt4pairIKiiELb0EEEE8allocateEmPKv
FN:103,_ZN9__gnu_cxx13new_allocatorINSt8__detail10_Hash_nodeISt4pairIKiSt13unordered_mapIiiSt4hashIiESt8equal_toIiESaIS3_IS4_iEEEELb0EEEE8allocateEmPKv
FNDA:4,_ZN9__gnu_cxx13new_allocatorINSt8__detail10_Hash_nodeISt4pairIKiSt13unordered_mapIiiSt4hashIiESt8equal_toIiESaIS3_IS4_iEEEELb0EEEE8allocateEmPKv
FN:103,_ZN9__gnu_cxx13new_allocatorIPNSt8__detail15_Hash_node_baseEE8allocateEmPKv
FNDA:5,_ZN9__gnu_cxx13new_allocatorIPNSt8__detail15_Hash_node_baseEE8allocateEmPKv
FN:103,_ZN9__gnu_cxx13new_allocatorISt5tupleIJiiiiEEE8allocateEmPKv
FNDA:5,_ZN9__gnu_cxx13new_allocatorISt5tupleIJiiiiEEE8allocateEmPKv
DA:103,16
DA:111,16
DA:115,0
DA:116,0
DA:117,0
DA:127,16
DA:103,4
DA:111,4
DA:115,0
DA:116,0
DA:117,0
DA:127,4
DA:103,5
DA:111,5
DA:115,0
DA:116,0
DA:117,0
DA:127,5
DA:103,5
DA:111,5
DA:115,0
DA:116,0
DA:117,0
DA:127,5
DA:145,8
DA:168,3
end_of_record
SF:/usr/include/c++/11/bits/stl_vector.h
FN:333,_ZNSt12_Vector_baseIiSaIiEED2Ev
FNDA:2,_ZNSt12_Vector_baseIiSaIiEED2Ev
FN:333,_ZNSt12_Vector_baseISt5tupleIJiiiiEESaIS1_EED2Ev
FNDA:3,_ZNSt12_Vector_baseISt5tupleIJiiiiEESaIS1_EED2Ev
FN:359,_ZNSt12_Vector_baseISt5tupleIJiiiiEESaIS1_EE17_M_create_storageEm
FNDA:2,_ZNSt12_Vector_baseISt5tupleIJiiiiEESaIS1_EE17_M_create_storageEm
FN:553,_ZNSt6vectorISt5tupleIJiiiiEESaIS1_EEC2ERKS3_
FNDA:2,_ZNSt6vectorISt5tupleIJiiiiEESaIS1_EEC2ERKS3_
FN:1756,_ZNKSt6vectorISt5tupleIJiiiiEESaIS1_EE12_M_check_lenEmPKc
FNDA:3,_ZNKSt6vectorISt5tupleIJiiiiEESaIS1_EE12_M_check_lenEmPKc
DA:97,3
DA:98,1
DA:305,2
DA:333,2
DA:335,2
DA:336,2
DA:337,2
DA:333,3
DA:335,3
DA:336,3
DA:337,3
DA:346,5
DA:353,8
DA:359,2
DA:361,2
DA:362,2
DA:363,2
DA:364,2
DA:553,2
DA:555,2
DA:557,2
DA:558,2
DA:561,2
DA:683,1
DA:919,2
DA:1756,3
DA:1758,3
DA:1759,0
DA:1761,3
DA:1762,3
end_of_record
SF:/usr/include/c++/11/bits/stl_algobase.h
FN:152,_ZSt9iter_swapIN9__gnu_cxx17__normal_iteratorIPSt5tupleIJiiiiEESt6vectorIS3_SaIS3_EEEES8_EvT_T0_
FNDA:0,_ZSt9iter_swapIN9__gnu_cxx17__normal_iteratorIPSt5tupleIJiiiiEESt6vectorIS3_SaIS3_EEEES8_EvT_T0_
FN:714,_ZNSt20__copy_move_backwardILb1ELb0ESt26random_access_iterator_tagE13__copy_move_bIPSt5tupleIJiiiiEES5_EET0_T_S7_S6_
FNDA:0,_ZNSt20__copy_move_backwardILb1ELb0ESt26random_access_iterator_tagE13__copy_move_bIPSt5tupleIJiiiiEES5_EET0_T_S7_S6_
DA:152,0
DA:184,0
DA:259,3
DA:260,1
DA:714,0
DA:717,0
DA:718,0
DA:719,0
DA:720,0
DA:760,0
DA:1515,1
end_of_record
SF:/usr/include/c++/11/bits/stl_algo.h
FN:79,_ZSt22__move_median_to_firstIN9__gnu_cxx17__normal_iteratorIPSt5tupleIJiiiiEESt6vectorIS3_SaIS3_EEEENS0_5__ops15_Iter_comp_iterIZN13KruskalSolver10computeMSTERKS7_iEUlRKT_RKT0_E_EEEvSE_SE_SE_SE_SH_
FNDA:0,_ZSt22__move_median_to_firstIN9__gnu_cxx17__normal_iteratorIPSt5tupleIJiiiiEESt6vectorIS3_SaIS3_EEEENS0_5__ops15_Iter_comp_iterIZN13KruskalSolver10computeMSTERKS7_iEUlRKT_RKT0_E_EEEvSE_SE_SE_SE_SH_
FN:1642,_ZSt13__heap_selectIN9__gnu_cxx17__normal_iteratorIPSt5tupleIJiiiiEESt6vectorIS3_SaIS3_EEEENS0_5__ops15_Iter_comp_iterIZN13KruskalSolver10computeMSTERKS7_iEUlRKT_RKT0_E_EEEvSE_SE_SE_SH_
FNDA:0,_ZSt13__heap_selectIN9__gnu_cxx17__normal_iteratorIPSt5tupleIJiiiiEESt6vectorIS3_SaIS3_EEEENS0_5__ops15_Iter_comp_iterIZN13KruskalSolver10computeMSTERKS7_iEUlRKT_RKT0_E_EEEvSE_SE_SE_SH_
FN:1799,_ZSt25__unguarded_linear_insertIN9__gnu_cxx17__normal_iteratorIPSt5tupleIJiiiiEESt6vectorIS3_SaIS3_EEEENS0_5__ops14_Val_comp_iterIZN13KruskalSolver10computeMSTERKS7_iEUlRKT_RKT0_E_EEEvSE_SH_
FNDA:7,_ZSt25__unguarded_linear_insertIN9__gnu_cxx17__normal_iteratorIPSt5tupleIJiiiiEESt6vectorIS3_SaIS3_EEEENS0_5__ops14_Val_comp_iterIZN13KruskalSolver10computeMSTERKS7_iEUlRKT_RKT0_E_EEEvSE_SH_
FN:1819,_ZSt16__insertion_sortIN9__gnu_cxx17__normal_iteratorIPSt5tupleIJiiiiEESt6vectorIS3_SaIS3_EEEENS0_5__ops15_Iter_comp_iterIZN13KruskalSolver10computeMSTERKS7_iEUlRKT_RKT0_E_EEEvSE_SE_SH_
FNDA:1,_ZSt16__insertion_sortIN9__gnu_cxx17__normal_iteratorIPSt5tupleIJiiiiEESt6vectorIS3_SaIS3_EEEENS0_5__ops15_Iter_comp_iterIZN13KruskalSolver10computeMSTERKS7_iEUlRKT_RKT0_E_EEEvSE_SE_SH_
FN:1861,_ZSt22__final_insertion_sortIN9__gnu_cxx17__normal_iteratorIPSt5tupleIJiiiiEESt6vectorIS3_SaIS3_EEEENS0_5__ops15_Iter_comp_iterIZN13KruskalSolver10computeMSTERKS7_iEUlRKT_RKT0_E_EEEvSE_SE_SH_
FNDA:1,_ZSt22__final_insertion_sortIN9__gnu_cxx17__normal_iteratorIPSt5tupleIJiiiiEESt6vectorIS3_SaIS3_EEEENS0_5__ops15_Iter_comp_iterIZN13KruskalSolver10computeMSTERKS7_iEUlRKT_RKT0_E_EEEvSE_SE_SH_
FN:1878,_ZSt21__unguarded_partitionIN9__gnu_cxx17__normal_iteratorIPSt5tupleIJiiiiEESt6vectorIS3_SaIS3_EEEENS0_5__ops15_Iter_comp_iterIZN13KruskalSolver10computeMSTERKS7_iEUlRKT_RKT0_E_EEESE_SE_SE_SE_SH_
FNDA:0,_ZSt21__unguarded_partitionIN9__gnu_cxx17__normal_iteratorIPSt5tupleIJiiiiEESt6vectorIS3_SaIS3_EEEENS0_5__ops15_Iter_comp_iterIZN13KruskalSolver10computeMSTERKS7_iEUlRKT_RKT0_E_EEESE_SE_SE_SE_SH_
FN:1900,_ZSt27__unguarded_partition_pivotIN9__gnu_cxx17__normal_iteratorIPSt5tupleIJiiiiEESt6vectorIS3_SaIS3_EEEENS0_5__ops15_Iter_comp_iterIZN13KruskalSolver10computeMSTERKS7_iEUlRKT_RKT0_E_EEESE_SE_SE_SH_
FNDA:0,_ZSt27__unguarded_partition_pivotIN9__gnu_cxx17__normal_iteratorIPSt5tupleIJiiiiEESt6vectorIS3_SaIS3_EEEENS0_5__ops15_Iter_comp_iterIZN13KruskalSolver10computeMSTERKS7_iEUlRKT_RKT0_E_EEESE_SE_SE_SH_
FN:1912,_ZSt14__partial_sortIN9__gnu_cxx17__normal_iteratorIPSt5tupleIJiiiiEESt6vectorIS3_SaIS3_EEEENS0_5__ops15_Iter_comp_iterIZN13KruskalSolver10computeMSTERKS7_iEUlRKT_RKT0_E_EEEvSE_SE_SE_SH_
FNDA:0,_ZSt14__partial_sortIN9__gnu_cxx17__normal_iteratorIPSt5tupleIJiiiiEESt6vectorIS3_SaIS3_EEEENS0_5__ops15_Iter_comp_iterIZN13KruskalSolver10computeMSTERKS7_iEUlRKT_RKT0_E_EEEvSE_SE_SE_SH_
FN:1925,_ZSt16__introsort_loopIN9__gnu_cxx17__normal_iteratorIPSt5tupleIJiiiiEESt6vectorIS3_SaIS3_EEEElNS0_5__ops15_Iter_comp_iterIZN13KruskalSolver10computeMSTERKS7_iEUlRKT_RKT0_E_EEEvSE_SE_SH_T1_
FNDA:1,_ZSt16__introsort_loopIN9__gnu_cxx17__normal_iteratorIPSt5tupleIJiiiiEESt6vectorIS3_SaIS3_EEEElNS0_5__ops15_Iter_comp_iterIZN13KruskalSolver10computeMSTERKS7_iEUlRKT_RKT0_E_EEEvSE_SE_SH_T1_
FN:1949,_ZSt6__sortIN9__gnu_cxx17__normal_iteratorIPSt5tupleIJiiiiEESt6vectorIS3_SaIS3_EEEENS0_5__ops15_Iter_comp_iterIZN13KruskalSolver10computeMSTERKS7_iEUlRKT_RKT0_E_EEEvSE_SE_SH_
FNDA:1,_ZSt6__sortIN9__gnu_cxx17__normal_iteratorIPSt5tupleIJiiiiEESt6vectorIS3_SaIS3_EEEENS0_5__ops15_Iter_comp_iterIZN13KruskalSolver10computeMSTERKS7_iEUlRKT_RKT0_E_EEEvSE_SE_SH_
DA:79,0
DA:82,0
DA:84,0
DA:85,0
DA:86,0
DA:87,0
DA:89,0
DA:91,0
DA:92,0
DA:93,0
DA:94,0
DA:96,0
DA:97,0
DA:1642,0
DA:1646,0
DA:1647,0
DA:1648,0
DA:1649,0
DA:1650,0
DA:1799,7
DA:1806,11
DA:1813,7
DA:1819,1
DA:1822,1
DA:1824,8
DA:1826,7
DA:1834,7
DA:1846,0
DA:1847,0
DA:1861,1
DA:1864,1
DA:1866,0
DA:1871,1
DA:1872,1
DA:1878,0
DA:1884,0
DA:1887,0
DA:1889,0
DA:1890,0
DA:1891,0
DA:1900,0
DA:1903,0
DA:1904,0
DA:1906,0
DA:1912,0
DA:1917,0
DA:1918,0
DA:1919,0
DA:1925,1
DA:1929,1
DA:1931,0
DA:1933,0
DA:1934,0
DA:1936,0
DA:1938,0
DA:1939,0
DA:1940,0
DA:1949,1
DA:1952,1
DA:1954,1
DA:1957,1
DA:1959,1
DA:4875,1
end_of_record
SF:/usr/include/c++/11/ext/aligned_buffer.h
DA:104,20
end_of_record
SF:/usr/include/c++/11/bits/stl_heap.h
FN:134,_ZSt11__push_heapIN9__gnu_cxx17__normal_iteratorIPSt5tupleIJiiiiEESt6vectorIS3_SaIS3_EEEElS3_NS0_5__ops14_Iter_comp_valIZN13KruskalSolver10computeMSTERKS7_iEUlRKT_RKT0_E_EEEvSE_SH_SH_T1_RT2_
FNDA:0,_ZSt11__push_heapIN9__gnu_cxx17__normal_iteratorIPSt5tupleIJiiiiEESt6vectorIS3_SaIS3_EEEElS3_NS0_5__ops14_Iter_comp_valIZN13KruskalSolver10computeMSTERKS7_iEUlRKT_RKT0_E_EEEvSE_SH_SH_T1_RT2_
FN:223,_ZSt13__adjust_heapIN9__gnu_cxx17__normal_iteratorIPSt5tupleIJiiiiEESt6vectorIS3_SaIS3_EEEElS3_NS0_5__ops15_Iter_comp_iterIZN13KruskalSolver10computeMSTERKS7_iEUlRKT_RKT0_E_EEEvSE_SH_SH_T1_T2_
FNDA:0,_ZSt13__adjust_heapIN9__gnu_cxx17__normal_iteratorIPSt5tupleIJiiiiEESt6vectorIS3_SaIS3_EEEElS3_NS0_5__ops15_Iter_comp_iterIZN13KruskalSolver10computeMSTERKS7_iEUlRKT_RKT0_E_EEEvSE_SH_SH_T1_T2_
FN:253,_ZSt10__pop_heapIN9__gnu_cxx17__normal_iteratorIPSt5tupleIJiiiiEESt6vectorIS3_SaIS3_EEEENS0_5__ops15_Iter_comp_iterIZN13KruskalSolver10computeMSTERKS7_iEUlRKT_RKT0_E_EEEvSE_SE_SE_RSH_
FNDA:0,_ZSt10__pop_heapIN9__gnu_cxx17__normal_iteratorIPSt5tupleIJiiiiEESt6vectorIS3_SaIS3_EEEENS0_5__ops15_Iter_comp_iterIZN13KruskalSolver10computeMSTERKS7_iEUlRKT_RKT0_E_EEEvSE_SE_SE_RSH_
FN:339,_ZSt11__make_heapIN9__gnu_cxx17__normal_iteratorIPSt5tupleIJiiiiEESt6vectorIS3_SaIS3_EEEENS0_5__ops15_Iter_comp_iterIZN13KruskalSolver10computeMSTERKS7_iEUlRKT_RKT0_E_EEEvSE_SE_RSH_
FNDA:0,_ZSt11__make_heapIN9__gnu_cxx17__normal_iteratorIPSt5tupleIJiiiiEESt6vectorIS3_SaIS3_EEEENS0_5__ops15_Iter_comp_iterIZN13KruskalSolver10computeMSTERKS7_iEUlRKT_RKT0_E_EEEvSE_SE_RSH_
FN:418,_ZSt11__sort_heapIN9__gnu_cxx17__normal_iteratorIPSt5tupleIJiiiiEESt6vectorIS3_SaIS3_EEEENS0_5__ops15_Iter_comp_iterIZN13KruskalSolver10computeMSTERKS7_iEUlRKT_RKT0_E_EEEvSE_SE_RSH_
FNDA:0,_ZSt11__sort_heapIN9__gnu_cxx17__normal_iteratorIPSt5tupleIJiiiiEESt6vectorIS3_SaIS3_EEEENS0_5__ops15_Iter_comp_iterIZN13KruskalSolver10computeMSTERKS7_iEUlRKT_RKT0_E_EEEvSE_SE_RSH_
DA:134,0
DA:138,0
DA:139,0
DA:143,0
DA:146,0
DA:223,0
DA:228,0
DA:230,0
DA:231,0
DA:237,0
DA:239,0
DA:240,0
DA:246,0
DA:248,0
DA:253,0
DA:263,0
DA:266,0
DA:339,0
DA:347,0
DA:351,0
DA:352,0
DA:355,0
DA:357,0
DA:358,0
DA:359,0
DA:418,0
DA:421,0
DA:424,0
DA:426,0
end_of_record
SF:/usr/include/c++/11/bits/functional_hash.h
DA:154,20
end_of_record
SF:/usr/include/c++/11/bits/move.h
DA:204,0
DA:205,0
DA:206,0
end_of_record
SF:/usr/include/c++/11/bits/hashtable_policy.h
FN:1870,_ZNSt8__detail16_Hashtable_allocISaINS_10_Hash_nodeISt4pairIKiiELb0EEEEE16_M_allocate_nodeIJRKS4_EEEPS5_DpOT_
FNDA:16,_ZNSt8__detail16_Hashtable_allocISaINS_10_Hash_nodeISt4pairIKiiELb0EEEEE16_M_allocate_nodeIJRKS4_EEEPS5_DpOT_
FN:1870,_ZNSt8__detail16_Hashtable_allocISaINS_10_Hash_nodeISt4pairIKiSt13unordered_mapIiiSt4hashIiESt8equal_toIiESaIS2_IS3_iEEEELb0EEEEE16_M_allocate_nodeIJRKSC_EEEPSD_DpOT_
FNDA:4,_ZNSt8__detail16_Hashtable_allocISaINS_10_Hash_nodeISt4pairIKiSt13unordered_mapIiiSt4hashIiESt8equal_toIiESaIS2_IS3_iEEEELb0EEEEE16_M_allocate_nodeIJRKSC_EEEPSD_DpOT_
FN:1892,_ZNSt8__detail16_Hashtable_allocISaINS_10_Hash_nodeISt4pairIKiSt13unordered_mapIiiSt4hashIiESt8equal_toIiESaIS2_IS3_iEEEELb0EEEEE18_M_deallocate_nodeEPSD_
FNDA:0,_ZNSt8__detail16_Hashtable_allocISaINS_10_Hash_nodeISt4pairIKiSt13unordered_mapIiiSt4hashIiESt8equal_toIiESaIS2_IS3_iEEEELb0EEEEE18_M_deallocate_nodeEPSD_
FN:1922,_ZNSt8__detail16_Hashtable_allocISaINS_10_Hash_nodeISt4pairIKiiELb0EEEEE19_M_allocate_bucketsEm
FNDA:4,_ZNSt8__detail16_Hashtable_allocISaINS_10_Hash_nodeISt4pairIKiiELb0EEEEE19_M_allocate_bucketsEm
FN:1922,_ZNSt8__detail16_Hashtable_allocISaINS_10_Hash_nodeISt4pairIKiSt13unordered_mapIiiSt4hashIiESt8equal_toIiESaIS2_IS3_iEEEELb0EEEEE19_M_allocate_bucketsEm
FNDA:1,_ZNSt8__detail16_Hashtable_allocISaINS_10_Hash_nodeISt4pairIKiSt13unordered_mapIiiSt4hashIiESt8equal_toIiESaIS2_IS3_iEEEELb0EEEEE19_M_allocate_bucketsEm
DA:162,5
DA:163,5
DA:168,20
DA:219,9
DA:283,20
DA:430,20
DA:1219,20
DA:1870,16
DA:1881,16
DA:1870,4
DA:1881,4
DA:1883,0
DA:1886,0
DA:1892,0
DA:1896,0
DA:1904,0
DA:1912,0
DA:1916,0
DA:1922,4
DA:1929,4
DA:1930,4
DA:1922,1
DA:1929,1
DA:1930,1
DA:1943,1
end_of_record
SF:/home/aharonba123/Desktop/H.W/Semester_B/Operating_Systems/Final_project/5_pipeline/union_find.hpp
DA:9,1
end_of_record
SF:/usr/include/c++/11/tuple
DA:192,3
DA:193,3
DA:236,8
DA:283,3
DA:301,10
DA:397,11
DA:454,3
DA:456,10
DA:538,4
end_of_record
SF:/usr/include/c++/11/bits/stl_iterator.h
DA:1028,3
DA:1043,0
DA:1054,11
DA:1055,15
DA:1068,0
DA:1069,11
DA:1091,1
DA:1101,0
DA:1198,0
DA:1271,6
end_of_record
SF:/usr/include/c++/11/bits/unordered_map.h
DA:102,0
DA:181,5
end_of_record
SF:/usr/include/c++/11/bits/hashtable.h
FN:407,_ZNSt10_HashtableIiSt4pairIKiiESaIS2_ENSt8__detail10_Select1stESt8equal_toIiESt4hashIiENS4_18_Mod_range_hashingENS4_20_Default_ranged_hashENS4_20_Prime_rehash_policyENS4_17_Hashtable_traitsILb0ELb0ELb1EEEE16_M_update_bbeginEv
FNDA:4,_ZNSt10_HashtableIiSt4pairIKiiESaIS2_ENSt8__detail10_Select1stESt8equal_toIiESt4hashIiENS4_18_Mod_range_hashingENS4_20_Default_ranged_hashENS4_20_Prime_rehash_policyENS4_17_Hashtable_traitsILb0ELb0ELb1EEEE16_M_update_bbeginEv
FN:407,_ZNSt10_HashtableIiSt4pairIKiSt13unordered_mapIiiSt4hashIiESt8equal_toIiESaIS0_IS1_iEEEESaISA_ENSt8__detail10_Select1stES6_S4_NSC_18_Mod_range_hashingENSC_20_Default_ranged_hashENSC_20_Prime_rehash_policyENSC_17_Hashtable_traitsILb0ELb0ELb1EEEE16_M_update_bbeginEv
FNDA:1,_ZNSt10_HashtableIiSt4pairIKiSt13unordered_mapIiiSt4hashIiESt8equal_toIiESaIS0_IS1_iEEEESaISA_ENSt8__detail10_Select1stES6_S4_NSC_18_Mod_range_hashingENSC_20_Default_ranged_hashENSC_20_Prime_rehash_policyENSC_17_Hashtable_traitsILb0ELb0ELb1EEEE16_M_update_bbeginEv
FN:453,_ZNSt10_HashtableIiSt4pairIKiiESaIS2_ENSt8__detail10_Select1stESt8equal_toIiESt4hashIiENS4_18_Mod_range_hashingENS4_20_Default_ranged_hashENS4_20_Prime_rehash_policyENS4_17_Hashtable_traitsILb0ELb0ELb1EEEE21_M_deallocate_bucketsEv
FNDA:0,_ZNSt10_HashtableIiSt4pairIKiiESaIS2_ENSt8__detail10_Select1stESt8equal_toIiESt4hashIiENS4_18_Mod_range_hashingENS4_20_Default_ranged_hashENS4_20_Prime_rehash_policyENS4_17_Hashtable_traitsILb0ELb0ELb1EEEE21_M_deallocate_bucketsEv
FN:453,_ZNSt10_HashtableIiSt4pairIKiSt13unordered_mapIiiSt4hashIiESt8equal_toIiESaIS0_IS1_iEEEESaISA_ENSt8__detail10_Select1stES6_S4_NSC_18_Mod_range_hashingENSC_20_Default_ranged_hashENSC_20_Prime_rehash_policyENSC_17_Hashtable_traitsILb0ELb0ELb1EEEE21_M_deallocate_bucketsEv
FNDA:1,_ZNSt10_HashtableIiSt4pairIKiSt13unordered_mapIiiSt4hashIiESt8equal_toIiESaIS0_IS1_iEEEESaISA_ENSt8__detail10_Select1stES6_S4_NSC_18_Mod_range_hashingENSC_20_Default_ranged_hashENSC_20_Prime_rehash_policyENSC_17_Hashtable_traitsILb0ELb0ELb1EEEE21_M_deallocate_bucketsEv
FN:1289,_ZNSt10_HashtableIiSt4pairIKiiESaIS2_ENSt8__detail10_Select1stESt8equal_toIiESt4hashIiENS4_18_Mod_range_hashingENS4_20_Default_ranged_hashENS4_20_Prime_rehash_policyENS4_17_Hashtable_traitsILb0ELb0ELb1EEEE9_M_assignIRKSF_NS4_10_AllocNodeISaINS4_10_Hash_nodeIS2_Lb0EEEEEEEEvOT_RKT0_
FNDA:4,_ZNSt10_HashtableIiSt4pairIKiiESaIS2_ENSt8__detail10_Select1stESt8equal_toIiESt4hashIiENS4_18_Mod_range_hashingENS4_20_Default_ranged_hashENS4_20_Prime_rehash_policyENS4_17_Hashtable_traitsILb0ELb0ELb1EEEE9_M_assignIRKSF_NS4_10_AllocNodeISaINS4_10_Hash_nodeIS2_Lb0EEEEEEEEvOT_RKT0_
FN:1289,_ZNSt10_HashtableIiSt4pairIKiSt13unordered_mapIiiSt4hashIiESt8equal_toIiESaIS0_IS1_iEEEESaISA_ENSt8__detail10_Select1stES6_S4_NSC_18_Mod_range_hashingENSC_20_Default_ranged_hashENSC_20_Prime_rehash_policyENSC_17_Hashtable_traitsILb0ELb0ELb1EEEE9_M_assignIRKSJ_NSC_10_AllocNodeISaINSC_10_Hash_nodeISA_Lb0EEEEEEEEvOT_RKT0_
FNDA:1,_ZNSt10_HashtableIiSt4pairIKiSt13unordered_mapIiiSt4hashIiESt8equal_toIiESaIS0_IS1_iEEEESaISA_ENSt8__detail10_Select1stES6_S4_NSC_18_Mod_range_hashingENSC_20_Default_ranged_hashENSC_20_Prime_rehash_policyENSC_17_Hashtable_traitsILb0ELb0ELb1EEEE9_M_assignIRKSJ_NSC_10_AllocNodeISaINSC_10_Hash_nodeISA_Lb0EEEEEEEEvOT_RKT0_
FN:1406,_ZNSt10_HashtableIiSt4pairIKiiESaIS2_ENSt8__detail10_Select1stESt8equal_toIiESt4hashIiENS4_18_Mod_range_hashingENS4_20_Default_ranged_hashENS4_20_Prime_rehash_policyENS4_17_Hashtable_traitsILb0ELb0ELb1EEEEC2ERKSF_
FNDA:4,_ZNSt10_HashtableIiSt4pairIKiiESaIS2_ENSt8__detail10_Select1stESt8equal_toIiESt4hashIiENS4_18_Mod_range_hashingENS4_20_Default_ranged_hashENS4_20_Prime_rehash_policyENS4_17_Hashtable_traitsILb0ELb0ELb1EEEEC2ERKSF_
FN:1406,_ZNSt10_HashtableIiSt4pairIKiSt13unordered_mapIiiSt4hashIiESt8equal_toIiESaIS0_IS1_iEEEESaISA_ENSt8__detail10_Select1stES6_S4_NSC_18_Mod_range_hashingENSC_20_Default_ranged_hashENSC_20_Prime_rehash_policyENSC_17_Hashtable_traitsILb0ELb0ELb1EEEEC2ERKSJ_
FNDA:1,_ZNSt10_HashtableIiSt4pairIKiSt13unordered_mapIiiSt4hashIiESt8equal_toIiESaIS0_IS1_iEEEESaISA_ENSt8__detail10_Select1stES6_S4_NSC_18_Mod_range_hashingENSC_20_Default_ranged_hashENSC_20_Prime_rehash_policyENSC_17_Hashtable_traitsILb0ELb0ELb1EEEEC2ERKSJ_
FN:2316,_ZNSt10_HashtableIiSt4pairIKiiESaIS2_ENSt8__detail10_Select1stESt8equal_toIiESt4hashIiENS4_18_Mod_range_hashingENS4_20_Default_ranged_hashENS4_20_Prime_rehash_policyENS4_17_Hashtable_traitsILb0ELb0ELb1EEEE5clearEv
FNDA:0,_ZNSt10_HashtableIiSt4pairIKiiESaIS2_ENSt8__detail10_Select1stESt8equal_toIiESt4hashIiENS4_18_Mod_range_hashingENS4_20_Default_ranged_hashENS4_20_Prime_rehash_policyENS4_17_Hashtable_traitsILb0ELb0ELb1EEEE5clearEv
FN:2316,_ZNSt10_HashtableIiSt4pairIKiSt13unordered_mapIiiSt4hashIiESt8equal_toIiESaIS0_IS1_iEEEESaISA_ENSt8__detail10_Select1stES6_S4_NSC_18_Mod_range_hashingENSC_20_Default_ranged_hashENSC_20_Prime_rehash_policyENSC_17_Hashtable_traitsILb0ELb0ELb1EEEE5clearEv
FNDA:0,_ZNSt10_HashtableIiSt4pairIKiSt13unordered_mapIiiSt4hashIiESt8equal_toIiESaIS0_IS1_iEEEESaISA_ENSt8__detail10_Select1stES6_S4_NSC_18_Mod_range_hashingENSC_20_Default_ranged_hashENSC_20_Prime_rehash_policyENSC_17_Hashtable_traitsILb0ELb0ELb1EEEE5clearEv
DA:407,4
DA:409,4
DA:410,4
DA:411,4
DA:407,1
DA:409,1
DA:410,1
DA:411,1
DA:416,5
DA:417,5
DA:422,1
DA:434,5
DA:436,0
DA:437,0
DA:440,5
DA:446,1
DA:453,0
DA:454,0
DA:453,1
DA:454,1
DA:463,5
DA:791,5
DA:1289,4
DA:1294,4
DA:1295,8
DA:1299,4
DA:1312,16
DA:1315,12
DA:1318,12
DA:1319,12
DA:1323,0
DA:1325,0
DA:1326,0
DA:1327,0
DA:1328,0
DA:1289,1
DA:1294,1
DA:1295,2
DA:1299,1
DA:1312,4
DA:1315,3
DA:1318,3
DA:1319,3
DA:1323,0
DA:1325,0
DA:1326,0
DA:1327,0
DA:1328,0
DA:1406,4
DA:1415,4
DA:1416,4
DA:1417,4
DA:1418,4
DA:1421,4
DA:1422,4
DA:1406,1
DA:1415,1
DA:1416,1
DA:1417,1
DA:1418,1
DA:1421,1
DA:1422,1
DA:1532,0
DA:1533,0
DA:2316,0
DA:2321,0
DA:2322,0
DA:2323,0
DA:2324,0
DA:2325,0
DA:2316,0
DA:2321,0
DA:2322,0
DA:2323,0
DA:2324,0
DA:2325,0
end_of_record
SF:/home/aharonba123/Desktop/H.W/Semester_B/Operating_Systems/Final_project/5_pipeline/KruskalSolver.hpp
end_of_record
SF:/home/aharonba123/Desktop/H.W/Semester_B/Operating_Systems/Final_project/5_pipeline/Tree.hpp
end_of_record
SF:/usr/include/c++/11/bits/alloc_traits.h
DA:464,30
DA:496,7
DA:520,4
end_of_record
SF:/usr/include/c++/11/bits/stl_uninitialized.h
DA:91,13
DA:1031,9
end_of_record
SF:/home/aharonba123/Desktop/H.W/Semester_B/Operating_Systems/Final_project/5_pipeline/KruskalSolver.cpp
FN:6,_ZN13KruskalSolver10computeMSTERKSt6vectorISt5tupleIJiiiiEESaIS2_EEi
FNDA:1,_ZN13KruskalSolver10computeMSTERKSt6vectorISt5tupleIJiiiiEESaIS2_EEi
DA:6,1
DA:9,1
DA:11,1
DA:14,1
DA:16,18
DA:19,9
DA:21,8
DA:23,3
DA:28,1
DA:33,1
DA:34,1
DA:35,1
DA:37,3
DA:38,1
end_of_record
TN:
SF:/usr/include/c++/11/bits/stl_set.h
FN:509,_ZNSt3setI4EdgeSt4lessIS0_ESaIS0_EE6insertERKS0_
FNDA:3,_ZNSt3setI4EdgeSt4lessIS0_ESaIS0_EE6insertERKS0_
FN:518,_ZNSt3setI4EdgeSt4lessIS0_ESaIS0_EE6insertEOS0_
FNDA:1,_ZNSt3setI4EdgeSt4lessIS0_ESaIS0_EE6insertEOS0_
DA:281,1
DA:509,3
DA:512,3
DA:513,3
DA:518,1
DA:521,1
DA:522,1
DA:655,4
DA:685,3
end_of_record
SF:/usr/include/c++/11/bits/stl_construct.h
DA:162,5
end_of_record
SF:/usr/include/c++/11/bits/stl_uninitialized.h
DA:91,4
DA:236,5
DA:578,5
DA:1031,20
end_of_record
SF:/usr/include/c++/11/bits/alloc_traits.h
DA:464,41
DA:496,12
DA:520,4
end_of_record
SF:/home/aharonba123/Desktop/H.W/Semester_B/Operating_Systems/Final_project/5_pipeline/Tree.hpp
end_of_record
SF:/usr/include/c++/11/bits/hashtable.h
FN:407,_ZNSt10_HashtableIiSt4pairIKiiESaIS2_ENSt8__detail10_Select1stESt8equal_toIiESt4hashIiENS4_18_Mod_range_hashingENS4_20_Default_ranged_hashENS4_20_Prime_rehash_policyENS4_17_Hashtable_traitsILb0ELb0ELb1EEEE16_M_update_bbeginEv
FNDA:4,_ZNSt10_HashtableIiSt4pairIKiiESaIS2_ENSt8__detail10_Select1stESt8equal_toIiESt4hashIiENS4_18_Mod_range_hashingENS4_20_Default_ranged_hashENS4_20_Prime_rehash_policyENS4_17_Hashtable_traitsILb0ELb0ELb1EEEE16_M_update_bbeginEv
FN:407,_ZNSt10_HashtableIiSt4pairIKiSt13unordered_mapIiiSt4hashIiESt8equal_toIiESaIS0_IS1_iEEEESaISA_ENSt8__detail10_Select1stES6_S4_NSC_18_Mod_range_hashingENSC_20_Default_ranged_hashENSC_20_Prime_rehash_policyENSC_17_Hashtable_traitsILb0ELb0ELb1EEEE16_M_update_bbeginEv
FNDA:1,_ZNSt10_HashtableIiSt4pairIKiSt13unordered_mapIiiSt4hashIiESt8equal_toIiESaIS0_IS1_iEEEESaISA_ENSt8__detail10_Select1stES6_S4_NSC_18_Mod_range_hashingENSC_20_Default_ranged_hashENSC_20_Prime_rehash_policyENSC_17_Hashtable_traitsILb0ELb0ELb1EEEE16_M_update_bbeginEv
FN:453,_ZNSt10_HashtableIiSt4pairIKiiESaIS2_ENSt8__detail10_Select1stESt8equal_toIiESt4hashIiENS4_18_Mod_range_hashingENS4_20_Default_ranged_hashENS4_20_Prime_rehash_policyENS4_17_Hashtable_traitsILb0ELb0ELb1EEEE21_M_deallocate_bucketsEv
FNDA:0,_ZNSt10_HashtableIiSt4pairIKiiESaIS2_ENSt8__detail10_Select1stESt8equal_toIiESt4hashIiENS4_18_Mod_range_hashingENS4_20_Default_ranged_hashENS4_20_Prime_rehash_policyENS4_17_Hashtable_traitsILb0ELb0ELb1EEEE21_M_deallocate_bucketsEv
FN:453,_ZNSt10_HashtableIiSt4pairIKiSt13unordered_mapIiiSt4hashIiESt8equal_toIiESaIS0_IS1_iEEEESaISA_ENSt8__detail10_Select1stES6_S4_NSC_18_Mod_range_hashingENSC_20_Default_ranged_hashENSC_20_Prime_rehash_policyENSC_17_Hashtable_traitsILb0ELb0ELb1EEEE21_M_deallocate_bucketsEv
FNDA:1,_ZNSt10_HashtableIiSt4pairIKiSt13unordered_mapIiiSt4hashIiESt8equal_toIiESaIS0_IS1_iEEEESaISA_ENSt8__detail10_Select1stES6_S4_NSC_18_Mod_range_hashingENSC_20_Default_ranged_hashENSC_20_Prime_rehash_policyENSC_17_Hashtable_traitsILb0ELb0ELb1EEEE21_M_deallocate_bucketsEv
FN:1289,_ZNSt10_HashtableIiSt4pairIKiiESaIS2_ENSt8__detail10_Select1stESt8equal_toIiESt4hashIiENS4_18_Mod_range_hashingENS4_20_Default_ranged_hashENS4_20_Prime_rehash_policyENS4_17_Hashtable_traitsILb0ELb0ELb1EEEE9_M_assignIRKSF_NS4_10_AllocNodeISaINS4_10_Hash_nodeIS2_Lb0EEEEEEEEvOT_RKT0_
FNDA:4,_ZNSt10_HashtableIiSt4pairIKiiESaIS2_ENSt8__detail10_Select1stESt8equal_toIiESt4hashIiENS4_18_Mod_range_hashingENS4_20_Default_ranged_hashENS4_20_Prime_rehash_policyENS4_17_Hashtable_traitsILb0ELb0ELb1EEEE9_M_assignIRKSF_NS4_10_AllocNodeISaINS4_10_Hash_nodeIS2_Lb0EEEEEEEEvOT_RKT0_
FN:1289,_ZNSt10_HashtableIiSt4pairIKiSt13unordered_mapIiiSt4hashIiESt8equal_toIiESaIS0_IS1_iEEEESaISA_ENSt8__detail10_Select1stES6_S4_NSC_18_Mod_range_hashingENSC_20_Default_ranged_hashENSC_20_Prime_rehash_policyENSC_17_Hashtable_traitsILb0ELb0ELb1EEEE9_M_assignIRKSJ_NSC_10_AllocNodeISaINSC_10_Hash_nodeISA_Lb0EEEEEEEEvOT_RKT0_
FNDA:1,_ZNSt10_HashtableIiSt4pairIKiSt13unordered_mapIiiSt4hashIiESt8equal_toIiESaIS0_IS1_iEEEESaISA_ENSt8__detail10_Select1stES6_S4_NSC_18_Mod_range_hashingENSC_20_Default_ranged_hashENSC_20_Prime_rehash_policyENSC_17_Hashtable_traitsILb0ELb0ELb1EEEE9_M_assignIRKSJ_NSC_10_AllocNodeISaINSC_10_Hash_nodeISA_Lb0EEEEEEEEvOT_RKT0_
FN:1406,_ZNSt10_HashtableIiSt4pairIKiiESaIS2_ENSt8__detail10_Select1stESt8equal_toIiESt4hashIiENS4_18_Mod_range_hashingENS4_20_Default_ranged_hashENS4_20_Prime_rehash_policyENS4_17_Hashtable_traitsILb0ELb0ELb1EEEEC2ERKSF_
FNDA:4,_ZNSt10_HashtableIiSt4pairIKiiESaIS2_ENSt8__detail10_Select1stESt8equal_toIiESt4hashIiENS4_18_Mod_range_hashingENS4_20_Default_ranged_hashENS4_20_Prime_rehash_policyENS4_17_Hashtable_traitsILb0ELb0ELb1EEEEC2ERKSF_
FN:1406,_ZNSt10_HashtableIiSt4pairIKiSt13unordered_mapIiiSt4hashIiESt8equal_toIiESaIS0_IS1_iEEEESaISA_ENSt8__detail10_Select1stES6_S4_NSC_18_Mod_range_hashingENSC_20_Default_ranged_hashENSC_20_Prime_rehash_policyENSC_17_Hashtable_traitsILb0ELb0ELb1EEEEC2ERKSJ_
FNDA:1,_ZNSt10_HashtableIiSt4pairIKiSt13unordered_mapIiiSt4hashIiESt8equal_toIiESaIS0_IS1_iEEEESaISA_ENSt8__detail10_Select1stES6_S4_NSC_18_Mod_range_hashingENSC_20_Default_ranged_hashENSC_20_Prime_rehash_policyENSC_17_Hashtable_traitsILb0ELb0ELb1EEEEC2ERKSJ_
FN:2316,_ZNSt10_HashtableIiSt4pairIKiiESaIS2_ENSt8__detail10_Select1stESt8equal_toIiESt4hashIiENS4_18_Mod_range_hashingENS4_20_Default_ranged_hashENS4_20_Prime_rehash_policyENS4_17_Hashtable_traitsILb0ELb0ELb1EEEE5clearEv
FNDA:0,_ZNSt10_HashtableIiSt4pairIKiiESaIS2_ENSt8__detail10_Select1stESt8equal_toIiESt4hashIiENS4_18_Mod_range_hashingENS4_20_Default_ranged_hashENS4_20_Prime_rehash_policyENS4_17_Hashtable_traitsILb0ELb0ELb1EEEE5clearEv
FN:2316,_ZNSt10_HashtableIiSt4pairIKiSt13unordered_mapIiiSt4hashIiESt8equal_toIiESaIS0_IS1_iEEEESaISA_ENSt8__detail10_Select1stES6_S4_NSC_18_Mod_range_hashingENSC_20_Default_ranged_hashENSC_20_Prime_rehash_policyENSC_17_Hashtable_traitsILb0ELb0ELb1EEEE5clearEv
FNDA:0,_ZNSt10_HashtableIiSt4pairIKiSt13unordered_mapIiiSt4hashIiESt8equal_toIiESaIS0_IS1_iEEEESaISA_ENSt8__detail10_Select1stES6_S4_NSC_18_Mod_range_hashingENSC_20_Default_ranged_hashENSC_20_Prime_rehash_policyENSC_17_Hashtable_traitsILb0ELb0ELb1EEEE5clearEv
DA:407,4
DA:409,4
DA:410,4
DA:411,4
DA:407,1
DA:409,1
DA:410,1
DA:411,1
DA:416,5
DA:417,5
DA:422,1
DA:434,5
DA:436,0
DA:437,0
DA:440,5
DA:446,1
DA:453,0
DA:454,0
DA:453,1
DA:454,1
DA:463,5
DA:791,5
DA:1289,4
DA:1294,4
DA:1295,8
DA:1299,4
DA:1312,16
DA:1315,12
DA:1318,12
DA:1319,12
DA:1323,0
DA:1325,0
DA:1326,0
DA:1327,0
DA:1328,0
DA:1289,1
DA:1294,1
DA:1295,2
DA:1299,1
DA:1312,4
DA:1315,3
DA:1318,3
DA:1319,3
DA:1323,0
DA:1325,0
DA:1326,0
DA:1327,0
DA:1328,0
DA:1406,4
DA:1415,4
DA:1416,4
DA:1417,4
DA:1418,4
DA:1421,4
DA:1422,4
DA:1406,1
DA:1415,1
DA:1416,1
DA:1417,1
DA:1418,1
DA:1421,1
DA:1422,1
DA:1532,0
DA:1533,0
DA:2316,0
DA:2321,0
DA:2322,0
DA:2323,0
DA:2324,0
DA:2325,0
DA:2316,0
DA:2321,0
DA:2322,0
DA:2323,0
DA:2324,0
DA:2325,0
end_of_record
SF:/usr/include/c++/11/bits/stl_tree.h
FN:528,_ZNKSt8_Rb_treeI4EdgeS0_St9_IdentityIS0_ESt4lessIS0_ESaIS0_EE11_Alloc_nodeclIRKS0_EEPSt13_Rb_tree_nodeIS0_EOT_
FNDA:3,_ZNKSt8_Rb_treeI4EdgeS0_St9_IdentityIS0_ESt4lessIS0_ESaIS0_EE11_Alloc_nodeclIRKS0_EEPSt13_Rb_tree_nodeIS0_EOT_
FN:528,_ZNKSt8_Rb_treeI4EdgeS0_St9_IdentityIS0_ESt4lessIS0_ESaIS0_EE11_Alloc_nodeclIS0_EEPSt13_Rb_tree_nodeIS0_EOT_
FNDA:1,_ZNKSt8_Rb_treeI4EdgeS0_St9_IdentityIS0_ESt4lessIS0_ESaIS0_EE11_Alloc_nodeclIS0_EEPSt13_Rb_tree_nodeIS0_EOT_
FN:1192,_ZNSt8_Rb_treeI4EdgeS0_St9_IdentityIS0_ESt4lessIS0_ESaIS0_EE5eraseB5cxx11ESt23_Rb_tree_const_iteratorIS0_E
FNDA:4,_ZNSt8_Rb_treeI4EdgeS0_St9_IdentityIS0_ESt4lessIS0_ESaIS0_EE5eraseB5cxx11ESt23_Rb_tree_const_iteratorIS0_E
FN:1252,_ZNSt8_Rb_treeI4EdgeS0_St9_IdentityIS0_ESt4lessIS0_ESaIS0_EE5clearEv
FNDA:1,_ZNSt8_Rb_treeI4EdgeS0_St9_IdentityIS0_ESt4lessIS0_ESaIS0_EE5clearEv
FN:1771,_ZNSt8_Rb_treeI4EdgeS0_St9_IdentityIS0_ESt4lessIS0_ESaIS0_EE10_M_insert_IRKS0_NS6_11_Alloc_nodeEEESt17_Rb_tree_iteratorIS0_EPSt18_Rb_tree_node_baseSE_OT_RT0_
FNDA:3,_ZNSt8_Rb_treeI4EdgeS0_St9_IdentityIS0_ESt4lessIS0_ESaIS0_EE10_M_insert_IRKS0_NS6_11_Alloc_nodeEEESt17_Rb_tree_iteratorIS0_EPSt18_Rb_tree_node_baseSE_OT_RT0_
FN:1771,_ZNSt8_Rb_treeI4EdgeS0_St9_IdentityIS0_ESt4lessIS0_ESaIS0_EE10_M_insert_IS0_NS6_11_Alloc_nodeEEESt17_Rb_tree_iteratorIS0_EPSt18_Rb_tree_node_baseSC_OT_RT0_
FNDA:1,_ZNSt8_Rb_treeI4EdgeS0_St9_IdentityIS0_ESt4lessIS0_ESaIS0_EE10_M_insert_IS0_NS6_11_Alloc_nodeEEESt17_Rb_tree_iteratorIS0_EPSt18_Rb_tree_node_baseSC_OT_RT0_
FN:1883,_ZNSt8_Rb_treeI4EdgeS0_St9_IdentityIS0_ESt4lessIS0_ESaIS0_EE8_M_eraseEPSt13_Rb_tree_nodeIS0_E
FNDA:2,_ZNSt8_Rb_treeI4EdgeS0_St9_IdentityIS0_ESt4lessIS0_ESaIS0_EE8_M_eraseEPSt13_Rb_tree_nodeIS0_E
FN:1900,_ZNSt8_Rb_treeI4EdgeS0_St9_IdentityIS0_ESt4lessIS0_ESaIS0_EE14_M_lower_boundEPSt13_Rb_tree_nodeIS0_EPSt18_Rb_tree_node_baseRKS0_
FNDA:0,_ZNSt8_Rb_treeI4EdgeS0_St9_IdentityIS0_ESt4lessIS0_ESaIS0_EE14_M_lower_boundEPSt13_Rb_tree_nodeIS0_EPSt18_Rb_tree_node_baseRKS0_
FN:1932,_ZNSt8_Rb_treeI4EdgeS0_St9_IdentityIS0_ESt4lessIS0_ESaIS0_EE14_M_upper_boundEPSt13_Rb_tree_nodeIS0_EPSt18_Rb_tree_node_baseRKS0_
FNDA:0,_ZNSt8_Rb_treeI4EdgeS0_St9_IdentityIS0_ESt4lessIS0_ESaIS0_EE14_M_upper_boundEPSt13_Rb_tree_nodeIS0_EPSt18_Rb_tree_node_baseRKS0_
FN:1966,_ZNSt8_Rb_treeI4EdgeS0_St9_IdentityIS0_ESt4lessIS0_ESaIS0_EE11equal_rangeERKS0_
FNDA:3,_ZNSt8_Rb_treeI4EdgeS0_St9_IdentityIS0_ESt4lessIS0_ESaIS0_EE11equal_rangeERKS0_
FN:2061,_ZNSt8_Rb_treeI4EdgeS0_St9_IdentityIS0_ESt4lessIS0_ESaIS0_EE24_M_get_insert_unique_posERKS0_
FNDA:4,_ZNSt8_Rb_treeI4EdgeS0_St9_IdentityIS0_ESt4lessIS0_ESaIS0_EE24_M_get_insert_unique_posERKS0_
FN:2115,_ZNSt8_Rb_treeI4EdgeS0_St9_IdentityIS0_ESt4lessIS0_ESaIS0_EE16_M_insert_uniqueIRKS0_EESt4pairISt17_Rb_tree_iteratorIS0_EbEOT_
FNDA:3,_ZNSt8_Rb_treeI4EdgeS0_St9_IdentityIS0_ESt4lessIS0_ESaIS0_EE16_M_insert_uniqueIRKS0_EESt4pairISt17_Rb_tree_iteratorIS0_EbEOT_
FN:2115,_ZNSt8_Rb_treeI4EdgeS0_St9_IdentityIS0_ESt4lessIS0_ESaIS0_EE16_M_insert_uniqueIS0_EESt4pairISt17_Rb_tree_iteratorIS0_EbEOT_
FNDA:1,_ZNSt8_Rb_treeI4EdgeS0_St9_IdentityIS0_ESt4lessIS0_ESaIS0_EE16_M_insert_uniqueIS0_EESt4pairISt17_Rb_tree_iteratorIS0_EbEOT_
FN:2480,_ZNSt8_Rb_treeI4EdgeS0_St9_IdentityIS0_ESt4lessIS0_ESaIS0_EE12_M_erase_auxESt23_Rb_tree_const_iteratorIS0_E
FNDA:4,_ZNSt8_Rb_treeI4EdgeS0_St9_IdentityIS0_ESt4lessIS0_ESaIS0_EE12_M_erase_auxESt23_Rb_tree_const_iteratorIS0_E
FN:2494,_ZNSt8_Rb_treeI4EdgeS0_St9_IdentityIS0_ESt4lessIS0_ESaIS0_EE12_M_erase_auxESt23_Rb_tree_const_iteratorIS0_ES8_
FNDA:3,_ZNSt8_Rb_treeI4EdgeS0_St9_IdentityIS0_ESt4lessIS0_ESaIS0_EE12_M_erase_auxESt23_Rb_tree_const_iteratorIS0_ES8_
FN:2507,_ZNSt8_Rb_treeI4EdgeS0_St9_IdentityIS0_ESt4lessIS0_ESaIS0_EE5eraseERKS0_
FNDA:3,_ZNSt8_Rb_treeI4EdgeS0_St9_IdentityIS0_ESt4lessIS0_ESaIS0_EE5eraseERKS0_
DA:146,1
DA:174,1
DA:175,1
DA:208,2
DA:209,2
DA:210,2
DA:211,2
DA:302,0
DA:303,0
DA:350,3
DA:351,7
DA:368,4
DA:376,0
DA:523,4
DA:524,4
DA:528,3
DA:529,6
DA:528,1
DA:529,2
DA:548,4
DA:624,4
DA:667,1
DA:735,9
DA:750,11
DA:780,1
DA:788,3
DA:984,1
DA:996,6
DA:1000,4
DA:1004,1
DA:1028,5
DA:1032,6
DA:1192,4
DA:1195,4
DA:1197,4
DA:1198,4
DA:1252,1
DA:1254,1
DA:1256,1
DA:1771,3
DA:1780,3
DA:1781,3
DA:1784,3
DA:1786,3
DA:1787,3
DA:1788,3
DA:1789,3
DA:1771,1
DA:1780,1
DA:1781,1
DA:1784,1
DA:1786,1
DA:1787,1
DA:1788,1
DA:1789,1
DA:1883,2
DA:1887,2
DA:1889,0
DA:1894,2
DA:1900,0
DA:1904,0
DA:1909,0
DA:1932,0
DA:1936,0
DA:1941,0
DA:1966,3
DA:1971,5
DA:1984,0
DA:1985,0
DA:1989,3
DA:2061,4
DA:2068,6
DA:2075,4
DA:2077,3
DA:2078,3
DA:2083,1
DA:2084,0
DA:2115,3
DA:2124,3
DA:2126,3
DA:2129,3
DA:2131,3
DA:2134,0
DA:2115,1
DA:2124,1
DA:2126,1
DA:2129,1
DA:2131,1
DA:2134,0
DA:2480,4
DA:2485,4
DA:2486,4
DA:2488,4
DA:2489,4
DA:2494,3
DA:2497,3
DA:2498,1
DA:2500,2
DA:2501,0
DA:2502,3
DA:2507,3
DA:2510,3
DA:2512,3
DA:2513,3
end_of_record
SF:/usr/include/c++/11/bits/stl_iterator.h
DA:1028,6
DA:1054,3
DA:1055,16
DA:1101,11
DA:1271,8
end_of_record
SF:/usr/include/c++/11/bits/unordered_map.h
DA:102,0
DA:181,5
end_of_record
SF:/usr/include/c++/11/tuple
DA:199,0
DA:200,0
DA:290,0
DA:301,0
DA:454,0
DA:456,0
end_of_record
SF:/usr/include/c++/11/bits/hashtable_policy.h
FN:1870,_ZNSt8__detail16_Hashtable_allocISaINS_10_Hash_nodeISt4pairIKiiELb0EEEEE16_M_allocate_nodeIJRKS4_EEEPS5_DpOT_
FNDA:16,_ZNSt8__detail16_Hashtable_allocISaINS_10_Hash_nodeISt4pairIKiiELb0EEEEE16_M_allocate_nodeIJRKS4_EEEPS5_DpOT_
FN:1870,_ZNSt8__detail16_Hashtable_allocISaINS_10_Hash_nodeISt4pairIKiSt13unordered_mapIiiSt4hashIiESt8equal_toIiESaIS2_IS3_iEEEELb0EEEEE16_M_allocate_nodeIJRKSC_EEEPSD_DpOT_
FNDA:4,_ZNSt8__detail16_Hashtable_allocISaINS_10_Hash_nodeISt4pairIKiSt13unordered_mapIiiSt4hashIiESt8equal_toIiESaIS2_IS3_iEEEELb0EEEEE16_M_allocate_nodeIJRKSC_EEEPSD_DpOT_
FN:1892,_ZNSt8__detail16_Hashtable_allocISaINS_10_Hash_nodeISt4pairIKiSt13unordered_mapIiiSt4hashIiESt8equal_toIiESaIS2_IS3_iEEEELb0EEEEE18_M_deallocate_nodeEPSD_
FNDA:0,_ZNSt8__detail16_Hashtable_allocISaINS_10_Hash_nodeISt4pairIKiSt13unordered_mapIiiSt4hashIiESt8equal_toIiESaIS2_IS3_iEEEELb0EEEEE18_M_deallocate_nodeEPSD_
FN:1922,_ZNSt8__detail16_Hashtable_allocISaINS_10_Hash_nodeISt4pairIKiiELb0EEEEE19_M_allocate_bucketsEm
FNDA:4,_ZNSt8__detail16_Hashtable_allocISaINS_10_Hash_nodeISt4pairIKiiELb0EEEEE19_M_allocate_bucketsEm
FN:1922,_ZNSt8__detail16_Hashtable_allocISaINS_10_Hash_nodeISt4pairIKiSt13unordered_mapIiiSt4hashIiESt8equal_toIiESaIS2_IS3_iEEEELb0EEEEE19_M_allocate_bucketsEm
FNDA:1,_ZNSt8__detail16_Hashtable_allocISaINS_10_Hash_nodeISt4pairIKiSt13unordered_mapIiiSt4hashIiESt8equal_toIiESaIS2_IS3_iEEEELb0EEEEE19_M_allocate_bucketsEm
DA:162,5
DA:163,5
DA:168,20
DA:219,9
DA:283,20
DA:430,20
DA:1219,20
DA:1870,16
DA:1881,16
DA:1870,4
DA:1881,4
DA:1883,0
DA:1886,0
DA:1892,0
DA:1896,0
DA:1904,0
DA:1912,0
DA:1916,0
DA:1922,4
DA:1929,4
DA:1930,4
DA:1922,1
DA:1929,1
DA:1930,1
DA:1943,1
end_of_record
SF:/usr/include/c++/11/bits/functional_hash.h
DA:154,20
end_of_record
SF:/home/aharonba123/Desktop/H.W/Semester_B/Operating_Systems/Final_project/5_pipeline/PrimSolver.hpp
end_of_record
SF:/usr/include/c++/11/ext/aligned_buffer.h
DA:104,20
end_of_record
SF:/usr/include/c++/11/bits/stl_algobase.h
DA:259,8
DA:260,4
end_of_record
SF:/usr/include/c++/11/bits/stl_vector.h
FN:333,_ZNSt12_Vector_baseI4EdgeSaIS0_EED2Ev
FNDA:5,_ZNSt12_Vector_baseI4EdgeSaIS0_EED2Ev
FN:333,_ZNSt12_Vector_baseISt6vectorI4EdgeSaIS1_EESaIS3_EED2Ev
FNDA:1,_ZNSt12_Vector_baseISt6vectorI4EdgeSaIS1_EESaIS3_EED2Ev
FN:333,_ZNSt12_Vector_baseISt5tupleIJiiiiEESaIS1_EED2Ev
FNDA:2,_ZNSt12_Vector_baseISt5tupleIJiiiiEESaIS1_EED2Ev
FN:359,_ZNSt12_Vector_baseISt5tupleIJiiiiEESaIS1_EE17_M_create_storageEm
FNDA:1,_ZNSt12_Vector_baseISt5tupleIJiiiiEESaIS1_EE17_M_create_storageEm
FN:359,_ZNSt12_Vector_baseI4EdgeSaIS0_EE17_M_create_storageEm
FNDA:1,_ZNSt12_Vector_baseI4EdgeSaIS0_EE17_M_create_storageEm
FN:359,_ZNSt12_Vector_baseISt6vectorI4EdgeSaIS1_EESaIS3_EE17_M_create_storageEm
FNDA:1,_ZNSt12_Vector_baseISt6vectorI4EdgeSaIS1_EESaIS3_EE17_M_create_storageEm
FN:510,_ZNSt6vectorIS_I4EdgeSaIS0_EESaIS2_EEC2EmRKS3_
FNDA:1,_ZNSt6vectorIS_I4EdgeSaIS0_EESaIS2_EEC2EmRKS3_
FN:522,_ZNSt6vectorI4EdgeSaIS0_EEC2EmRKS0_RKS1_
FNDA:1,_ZNSt6vectorI4EdgeSaIS0_EEC2EmRKS0_RKS1_
FN:553,_ZNSt6vectorISt5tupleIJiiiiEESaIS1_EEC2ERKS3_
FNDA:1,_ZNSt6vectorISt5tupleIJiiiiEESaIS1_EEC2ERKS3_
FN:678,_ZNSt6vectorIS_I4EdgeSaIS0_EESaIS2_EED2Ev
FNDA:1,_ZNSt6vectorIS_I4EdgeSaIS0_EESaIS2_EED2Ev
FN:1756,_ZNKSt6vectorISt5tupleIJiiiiEESaIS1_EE12_M_check_lenEmPKc
FNDA:0,_ZNKSt6vectorISt5tupleIJiiiiEESaIS1_EE12_M_check_lenEmPKc
FN:1756,_ZNKSt6vectorI4EdgeSaIS0_EE12_M_check_lenEmPKc
FNDA:8,_ZNKSt6vectorI4EdgeSaIS0_EE12_M_check_lenEmPKc
DA:97,8
DA:98,4
DA:305,2
DA:333,5
DA:335,5
DA:336,5
DA:337,5
DA:333,1
DA:335,1
DA:336,1
DA:337,1
DA:333,2
DA:335,2
DA:336,2
DA:337,2
DA:346,11
DA:353,16
DA:359,1
DA:361,1
DA:362,1
DA:363,1
DA:364,1
DA:359,1
DA:361,1
DA:362,1
DA:363,1
DA:364,1
DA:359,1
DA:361,1
DA:362,1
DA:363,1
DA:364,1
DA:487,1
DA:510,1
DA:511,1
DA:512,1
DA:522,1
DA:524,1
DA:525,1
DA:553,1
DA:555,1
DA:557,1
DA:558,1
DA:561,1
DA:678,1
DA:680,1
DA:683,7
DA:919,1
DA:1046,20
DA:1595,1
DA:1596,1
DA:1605,1
DA:1606,1
DA:1756,0
DA:1758,0
DA:1759,0
DA:1761,0
DA:1762,0
DA:1756,8
DA:1758,8
DA:1759,0
DA:1761,8
DA:1762,8
DA:1769,2
DA:1770,0
end_of_record
SF:/usr/include/c++/11/bits/stl_bvector.h
FN:172,_ZNSt18_Bit_iterator_base7_M_incrEl
FNDA:17,_ZNSt18_Bit_iterator_base7_M_incrEl
FN:299,_ZNKSt13_Bit_iteratorixEl
FNDA:16,_ZNKSt13_Bit_iteratorixEl
FN:553,_ZNSt13_Bvector_baseISaIbEE13_M_deallocateEv
FNDA:1,_ZNSt13_Bvector_baseISaIbEE13_M_deallocateEv
FN:647,_ZNSt6vectorIbSaIbEEC2EmRKbRKS0_
FNDA:1,_ZNSt6vectorIbSaIbEEC2EmRKbRKS0_
FN:1137,_ZNSt6vectorIbSaIbEE13_M_initializeEm
FNDA:1,_ZNSt6vectorIbSaIbEE13_M_initializeEm
FN:1150,_ZNSt6vectorIbSaIbEE19_M_initialize_valueEb
FNDA:1,_ZNSt6vectorIbSaIbEE19_M_initialize_valueEb
DA:87,12
DA:93,4
DA:149,1
DA:172,17
DA:174,17
DA:175,17
DA:176,17
DA:177,17
DA:179,0
DA:180,0
DA:182,17
DA:183,17
DA:252,16
DA:287,17
DA:299,16
DA:300,16
DA:305,16
DA:307,17
DA:443,1
DA:444,1
DA:466,1
DA:504,2
DA:505,2
DA:543,1
DA:550,1
DA:553,1
DA:555,1
DA:557,1
DA:558,1
DA:559,1
DA:563,1
DA:573,1
DA:647,1
DA:654,1
DA:656,1
DA:657,1
DA:658,1
DA:733,1
DA:832,12
DA:907,12
DA:1137,1
DA:1139,1
DA:1142,1
DA:1144,1
DA:1145,1
DA:1147,1
DA:1150,1
DA:1152,1
DA:1153,1
DA:1154,1
DA:1156,1
end_of_record
SF:/home/aharonba123/Desktop/H.W/Semester_B/Operating_Systems/Final_project/5_pipeline/PrimSolver.cpp
FN:23,_ZN10PrimSolver10computeMSTERKSt6vectorISt5tupleIJiiiiEESaIS2_EEi
FNDA:1,_ZN10PrimSolver10computeMSTERKSt6vectorISt5tupleIJiiiiEESaIS2_EEi
DA:19,8
DA:23,1
DA:26,1
DA:27,9
DA:29,8
DA:33,1
DA:34,1
DA:36,1
DA:37,1
DA:41,5
DA:43,4
DA:44,4
DA:45,4
DA:47,4
DA:48,0
DA:52,4
DA:54,3
DA:57,12
DA:59,8
DA:62,3
DA:63,3
DA:69,1
DA:74,1
DA:75,1
DA:76,1
DA:77,3
DA:78,2
end_of_record
SF:/usr/include/c++/11/bits/stl_pair.h
DA:267,7
DA:314,4
DA:353,4
DA:491,7
end_of_record
SF:/usr/include/c++/11/ext/new_allocator.h
FN:103,_ZN9__gnu_cxx13new_allocatorINSt8__detail10_Hash_nodeISt4pairIKiiELb0EEEE8allocateEmPKv
FNDA:16,_ZN9__gnu_cxx13new_allocatorINSt8__detail10_Hash_nodeISt4pairIKiiELb0EEEE8allocateEmPKv
FN:103,_ZN9__gnu_cxx13new_allocatorISt13_Rb_tree_nodeI4EdgeEE8allocateEmPKv
FNDA:4,_ZN9__gnu_cxx13new_allocatorISt13_Rb_tree_nodeI4EdgeEE8allocateEmPKv
FN:103,_ZN9__gnu_cxx13new_allocatorINSt8__detail10_Hash_nodeISt4pairIKiSt13unordered_mapIiiSt4hashIiESt8equal_toIiESaIS3_IS4_iEEEELb0EEEE8allocateEmPKv
FNDA:4,_ZN9__gnu_cxx13new_allocatorINSt8__detail10_Hash_nodeISt4pairIKiSt13unordered_mapIiiSt4hashIiESt8equal_toIiESaIS3_IS4_iEEEELb0EEEE8allocateEmPKv
FN:103,_ZN9__gnu_cxx13new_allocatorIPNSt8__detail15_Hash_node_baseEE8allocateEmPKv
FNDA:5,_ZN9__gnu_cxx13new_allocatorIPNSt8__detail15_Hash_node_baseEE8allocateEmPKv
FN:103,_ZN9__gnu_cxx13new_allocatorISt6vectorI4EdgeSaIS2_EEE8allocateEmPKv
FNDA:1,_ZN9__gnu_cxx13new_allocatorISt6vectorI4EdgeSaIS2_EEE8allocateEmPKv
FN:103,_ZN9__gnu_cxx13new_allocatorISt5tupleIJiiiiEEE8allocateEmPKv
FNDA:1,_ZN9__gnu_cxx13new_allocatorISt5tupleIJiiiiEEE8allocateEmPKv
FN:103,_ZN9__gnu_cxx13new_allocatorImE8allocateEmPKv
FNDA:1,_ZN9__gnu_cxx13new_allocatorImE8allocateEmPKv
FN:103,_ZN9__gnu_cxx13new_allocatorI4EdgeE8allocateEmPKv
FNDA:9,_ZN9__gnu_cxx13new_allocatorI4EdgeE8allocateEmPKv
DA:103,16
DA:111,16
DA:115,0
DA:116,0
DA:117,0
DA:127,16
DA:103,4
DA:111,4
DA:115,0
DA:116,0
DA:117,0
DA:127,4
DA:103,4
DA:111,4
DA:115,0
DA:116,0
DA:117,0
DA:127,4
DA:103,5
DA:111,5
DA:115,0
DA:116,0
DA:117,0
DA:127,5
DA:103,1
DA:111,1
DA:115,0
DA:116,0
DA:117,0
DA:127,1
DA:103,1
DA:111,1
DA:115,0
DA:116,0
DA:117,0
DA:127,1
DA:103,1
DA:111,1
DA:115,0
DA:116,0
DA:117,0
DA:127,1
DA:103,9
DA:111,9
DA:115,0
DA:116,0
DA:117,0
DA:127,9
DA:145,18
DA:168,4
end_of_record
SF:/usr/include/c++/11/bits/vector.tcc
FN:109,_ZNSt6vectorISt5tupleIJiiiiEESaIS1_EE12emplace_backIJRiS5_S5_S5_EEERS1_DpOT_
FNDA:3,_ZNSt6vectorISt5tupleIJiiiiEESaIS1_EE12emplace_backIJRiS5_S5_S5_EEERS1_DpOT_
FN:109,_ZNSt6vectorI4EdgeSaIS0_EE12emplace_backIJS0_EEERS0_DpOT_
FNDA:8,_ZNSt6vectorI4EdgeSaIS0_EE12emplace_backIJS0_EEERS0_DpOT_
FN:426,_ZNSt6vectorISt5tupleIJiiiiEESaIS1_EE17_M_realloc_insertIJRiS5_S5_S5_EEEvN9__gnu_cxx17__normal_iteratorIPS1_S3_EEDpOT_
FNDA:0,_ZNSt6vectorISt5tupleIJiiiiEESaIS1_EE17_M_realloc_insertIJRiS5_S5_S5_EEEvN9__gnu_cxx17__normal_iteratorIPS1_S3_EEDpOT_
FN:426,_ZNSt6vectorI4EdgeSaIS0_EE17_M_realloc_insertIJS0_EEEvN9__gnu_cxx17__normal_iteratorIPS0_S2_EEDpOT_
FNDA:8,_ZNSt6vectorI4EdgeSaIS0_EE17_M_realloc_insertIJS0_EEEvN9__gnu_cxx17__normal_iteratorIPS0_S2_EEDpOT_
DA:109,3
DA:112,3
DA:117,0
DA:121,3
DA:123,3
DA:109,8
DA:112,8
DA:117,0
DA:121,8
DA:123,8
DA:426,0
DA:436,0
DA:437,0
DA:438,0
DA:449,0
DA:450,0
DA:464,0
DA:501,0
DA:502,0
DA:503,0
DA:504,0
DA:505,0
DA:426,8
DA:436,8
DA:437,8
DA:438,8
DA:449,8
DA:450,8
DA:464,8
DA:501,8
DA:502,8
DA:503,8
DA:504,8
DA:505,8
end_of_record
TN:
SF:/usr/include/c++/11/bits/refwrap.h
DA:338,5
end_of_record
SF:/usr/include/aarch64-linux-gnu/c++/11/bits/gthr-default.h
DA:749,101
DA:779,97
end_of_record
SF:/usr/include/c++/11/bits/unique_lock.h
FN:131,_ZNSt11unique_lockISt5mutexE4lockEv
FNDA:15,_ZNSt11unique_lockISt5mutexE4lockEv
FN:189,_ZNSt11unique_lockISt5mutexE6unlockEv
FNDA:15,_ZNSt11unique_lockISt5mutexE6unlockEv
DA:66,15
DA:67,15
DA:69,15
DA:70,15
DA:103,15
DA:104,15
DA:131,15
DA:133,15
DA:134,0
DA:135,15
DA:136,0
DA:139,15
DA:140,15
DA:142,15
DA:189,15
DA:191,15
DA:192,0
DA:193,15
DA:196,15
DA:198,15
end_of_record
SF:/home/aharonba123/Desktop/H.W/Semester_B/Operating_Systems/Final_project/5_pipeline/PAO.cpp
FN:9,_ZN3PAOC2ERKSt6vectorISt8functionIFvPvEESaIS4_EE
FNDA:1,_ZN3PAOC2ERKSt6vectorISt8functionIFvPvEESaIS4_EE
FN:29,_ZN3PAOD2Ev
FNDA:1,_ZN3PAOD2Ev
FN:48,_ZN3PAO11enqueueTaskEPv
FNDA:2,_ZN3PAO11enqueueTaskEPv
FN:65,_ZN3PAO17initializeWorkersEv
FNDA:1,_ZN3PAO17initializeWorkersEv
FN:82,_ZN3PAO16terminateWorkersEv
FNDA:1,_ZN3PAO16terminateWorkersEv
FN:104,_ZN3PAO17executeWorkerTaskERNS_6WorkerEPS0_
FNDA:5,_ZN3PAO17executeWorkerTaskERNS_6WorkerEPS0_
FN:123,_ZZN3PAO17executeWorkerTaskERNS_6WorkerEPS0_ENKUlvE_clEv
FNDA:30,_ZZN3PAO17executeWorkerTaskERNS_6WorkerEPS0_ENKUlvE_clEv
DA:9,1
DA:12,6
DA:14,5
DA:15,5
DA:16,10
DA:17,5
DA:20,5
DA:22,4
DA:24,1
DA:29,1
DA:31,1
DA:34,6
DA:36,5
DA:38,5
DA:41,1
DA:48,2
DA:51,2
DA:52,2
DA:57,2
DA:58,2
DA:65,1
DA:68,1
DA:72,6
DA:74,5
DA:75,10
DA:77,1
DA:82,1
DA:86,1
DA:91,6
DA:94,5
DA:96,1
DA:104,5
DA:112,15
DA:116,20
DA:118,15
DA:123,15
DA:124,30
DA:125,30
DA:128,15
DA:130,10
DA:135,10
DA:137,10
DA:138,10
DA:142,10
DA:146,8
DA:152,10
end_of_record
SF:/usr/include/c++/11/bits/stl_deque.h
FN:353,_ZStmiRKSt15_Deque_iteratorIPvRS0_PS0_ES5_
FNDA:0,_ZStmiRKSt15_Deque_iteratorIPvRS0_PS0_ES5_
FN:437,_ZNSt11_Deque_baseIPvSaIS0_EEC2Ev
FNDA:5,_ZNSt11_Deque_baseIPvSaIS0_EEC2Ev
FN:454,_ZNSt11_Deque_baseIPvSaIS0_EEC2EOS2_
FNDA:12,_ZNSt11_Deque_baseIPvSaIS0_EEC2EOS2_
FN:500,_ZNSt11_Deque_baseIPvSaIS0_EE16_Deque_impl_dataC2ERKS3_
FNDA:12,_ZNSt11_Deque_baseIPvSaIS0_EE16_Deque_impl_dataC2ERKS3_
FN:504,_ZNSt11_Deque_baseIPvSaIS0_EE16_Deque_impl_dataC2EOS3_
FNDA:12,_ZNSt11_Deque_baseIPvSaIS0_EE16_Deque_impl_dataC2EOS3_
FN:596,_ZNSt11_Deque_baseIPvSaIS0_EED2Ev
FNDA:17,_ZNSt11_Deque_baseIPvSaIS0_EED2Ev
FN:617,_ZNSt11_Deque_baseIPvSaIS0_EE17_M_initialize_mapEm
FNDA:17,_ZNSt11_Deque_baseIPvSaIS0_EE17_M_initialize_mapEm
FN:656,_ZNSt11_Deque_baseIPvSaIS0_EE15_M_create_nodesEPPS0_S4_
FNDA:17,_ZNSt11_Deque_baseIPvSaIS0_EE15_M_create_nodesEPPS0_S4_
FN:1496,_ZNSt5dequeIPvSaIS0_EE9push_backERKS0_
FNDA:10,_ZNSt5dequeIPvSaIS0_EE9push_backERKS0_
FN:1532,_ZNSt5dequeIPvSaIS0_EE9pop_frontEv
FNDA:10,_ZNSt5dequeIPvSaIS0_EE9pop_frontEv
FN:2126,_ZNSt5dequeIPvSaIS0_EE22_M_reserve_map_at_backEm
FNDA:0,_ZNSt5dequeIPvSaIS0_EE22_M_reserve_map_at_backEm
DA:151,17
DA:152,17
DA:168,12
DA:169,10
DA:170,12
DA:262,17
DA:263,17
DA:264,17
DA:269,25
DA:353,0
DA:356,0
DA:357,0
DA:358,0
DA:437,5
DA:439,10
DA:454,12
DA:457,12
DA:458,12
DA:459,12
DA:460,12
DA:495,17
DA:496,17
DA:500,12
DA:504,12
DA:505,12
DA:506,12
DA:514,12
DA:515,12
DA:562,17
DA:584,17
DA:596,17
DA:599,17
DA:601,17
DA:602,17
DA:603,17
DA:605,17
DA:617,17
DA:620,17
DA:623,34
DA:624,17
DA:625,17
DA:632,17
DA:633,17
DA:634,17
DA:637,17
DA:638,0
DA:640,0
DA:641,0
DA:642,0
DA:643,0
DA:647,17
DA:648,17
DA:649,17
DA:650,17
DA:651,17
DA:652,17
DA:656,17
DA:662,34
DA:663,17
DA:665,0
DA:668,0
DA:670,17
DA:678,34
DA:679,17
DA:834,5
DA:1234,0
DA:1496,10
DA:1498,10
DA:1499,10
DA:1503,10
DA:1506,0
DA:1507,10
DA:1532,10
DA:1535,10
DA:1536,10
DA:1540,10
DA:1543,0
DA:1544,10
DA:2126,0
DA:2128,0
DA:2129,0
DA:2130,0
DA:2131,0
end_of_record
SF:/usr/include/c++/11/bits/stl_construct.h
DA:119,7
DA:120,7
DA:151,12
DA:162,17
end_of_record
SF:/usr/include/c++/11/bits/stl_uninitialized.h
FN:85,_ZNSt20__uninitialized_copyILb0EE13__uninit_copyISt13move_iteratorIPN3PAO6WorkerEES5_EET0_T_S8_S7_
FNDA:8,_ZNSt20__uninitialized_copyILb0EE13__uninit_copyISt13move_iteratorIPN3PAO6WorkerEES5_EET0_T_S8_S7_
DA:85,8
DA:91,15
DA:93,8
DA:95,0
DA:98,0
DA:151,4
DA:333,4
end_of_record
SF:/usr/include/c++/11/bits/alloc_traits.h
DA:464,38
DA:496,4
DA:520,4
DA:539,0
end_of_record
SF:/usr/include/c++/11/bits/invoke.h
FN:71,_ZSt13__invoke_implIvM3PAOFvRNS0_6WorkerEPS1_EPS0_JSt17reference_wrapperIS1_ES3_EET_St21__invoke_memfun_derefOT0_OT1_DpOT2_
FNDA:5,_ZSt13__invoke_implIvM3PAOFvRNS0_6WorkerEPS1_EPS0_JSt17reference_wrapperIS1_ES3_EET_St21__invoke_memfun_derefOT0_OT1_DpOT2_
DA:71,5
DA:74,5
DA:96,5
end_of_record
SF:/usr/include/c++/11/bits/move.h
FN:196,_ZSt4swapINSt11_Deque_baseIPvSaIS1_EE16_Deque_impl_dataEENSt9enable_ifIXsrSt6__and_IJSt6__not_ISt15__is_tuple_likeIT_EESt21is_move_constructibleIS9_ESt18is_move_assignableIS9_EEE5valueEvE4typeERS9_SJ_
FNDA:12,_ZSt4swapINSt11_Deque_baseIPvSaIS1_EE16_Deque_impl_dataEENSt9enable_ifIXsrSt6__and_IJSt6__not_ISt15__is_tuple_likeIT_EESt21is_move_constructibleIS9_ESt18is_move_assignableIS9_EEE5valueEvE4typeERS9_SJ_
DA:196,12
DA:204,12
DA:205,12
DA:206,12
DA:207,12
end_of_record
SF:/usr/include/c++/11/bits/stl_queue.h
FN:166,_ZNSt5queueIPvSt5dequeIS0_SaIS0_EEEC2IS3_vEEv
FNDA:5,_ZNSt5queueIPvSt5dequeIS0_SaIS0_EEEC2IS3_vEEv
DA:166,5
DA:167,5
DA:266,10
DA:301,10
end_of_record
SF:/usr/include/c++/11/iostream
end_of_record
SF:/usr/include/c++/11/bits/unique_ptr.h
FN:79,_ZNKSt14default_deleteISt6threadEclEPS0_
FNDA:5,_ZNKSt14default_deleteISt6threadEclEPS0_
FN:79,_ZNKSt14default_deleteISt18condition_variableEclEPS0_
FNDA:5,_ZNKSt14default_deleteISt18condition_variableEclEPS0_
FN:165,_ZNSt15__uniq_ptr_implISt6threadSt14default_deleteIS0_EEaSEOS3_
FNDA:5,_ZNSt15__uniq_ptr_implISt6threadSt14default_deleteIS0_EEaSEOS3_
FN:355,_ZNSt10unique_ptrINSt6thread6_StateESt14default_deleteIS1_EED2Ev
FNDA:5,_ZNSt10unique_ptrINSt6thread6_StateESt14default_deleteIS1_EED2Ev
FN:355,_ZNSt10unique_ptrISt6threadSt14default_deleteIS0_EED2Ev
FNDA:22,_ZNSt10unique_ptrISt6threadSt14default_deleteIS0_EED2Ev
FN:355,_ZNSt10unique_ptrISt18condition_variableSt14default_deleteIS0_EED2Ev
FNDA:22,_ZNSt10unique_ptrISt18condition_variableSt14default_deleteIS0_EED2Ev
FN:355,_ZNSt10unique_ptrISt5mutexSt14default_deleteIS0_EED2Ev
FNDA:22,_ZNSt10unique_ptrISt5mutexSt14default_deleteIS0_EED2Ev
FN:961,_ZSt11make_uniqueISt6threadJM3PAOFvRNS1_6WorkerEPS2_EPS1_St17reference_wrapperIS2_ERS4_EENSt9_MakeUniqIT_E15__single_objectEDpOT0_
FNDA:5,_ZSt11make_uniqueISt6threadJM3PAOFvRNS1_6WorkerEPS2_EPS1_St17reference_wrapperIS2_ERS4_EENSt9_MakeUniqIT_E15__single_objectEDpOT0_
FN:961,_ZSt11make_uniqueISt18condition_variableJEENSt9_MakeUniqIT_E15__single_objectEDpOT0_
FNDA:5,_ZSt11make_uniqueISt18condition_variableJEENSt9_MakeUniqIT_E15__single_objectEDpOT0_
FN:961,_ZSt11make_uniqueISt5mutexJEENSt9_MakeUniqIT_E15__single_objectEDpOT0_
FNDA:5,_ZSt11make_uniqueISt5mutexJEENSt9_MakeUniqIT_E15__single_objectEDpOT0_
DA:79,5
DA:85,10
DA:86,5
DA:79,5
DA:85,5
DA:86,5
DA:85,5
DA:86,5
DA:155,5
DA:163,5
DA:165,5
DA:169,5
DA:173,45
DA:179,5
DA:180,5
DA:181,5
DA:182,0
DA:187,5
DA:188,5
DA:212,5
DA:355,5
DA:360,5
DA:363,5
DA:355,22
DA:360,22
DA:361,5
DA:363,22
DA:355,22
DA:360,22
DA:361,5
DA:363,22
DA:355,22
DA:360,22
DA:363,22
DA:961,5
DA:962,5
DA:961,5
DA:962,5
DA:961,5
DA:962,5
end_of_record
SF:/usr/include/c++/11/tuple
DA:124,10
DA:189,5
DA:199,5
DA:200,5
DA:233,5
DA:290,5
DA:301,5
end_of_record
SF:/usr/include/c++/11/bits/stl_iterator.h
DA:1028,3
DA:1054,15
DA:1055,15
DA:1101,5
DA:1271,4
DA:1465,15
DA:1491,7
end_of_record
SF:/usr/include/c++/11/bits/std_thread.h
FN:127,_ZNSt6threadC2IM3PAOFvRNS1_6WorkerEPS2_EJPS1_St17reference_wrapperIS2_ERS4_EvEEOT_DpOT0_
FNDA:5,_ZNSt6threadC2IM3PAOFvRNS1_6WorkerEPS2_EJPS1_St17reference_wrapperIS2_ERS4_EvEEOT_DpOT0_
FN:211,_ZNSt6thread11_State_implINS_8_InvokerISt5tupleIJM3PAOFvRNS3_6WorkerEPS4_EPS3_St17reference_wrapperIS4_ES6_EEEEE6_M_runEv
FNDA:5,_ZNSt6thread11_State_implINS_8_InvokerISt5tupleIJM3PAOFvRNS3_6WorkerEPS4_EPS3_St17reference_wrapperIS4_ES6_EEEEE6_M_runEv
FN:262,_ZNSt6thread8_InvokerISt5tupleIJM3PAOFvRNS2_6WorkerEPS3_EPS2_St17reference_wrapperIS3_ES5_EEEclEv
FNDA:5,_ZNSt6thread8_InvokerISt5tupleIJM3PAOFvRNS2_6WorkerEPS3_EPS2_St17reference_wrapperIS3_ES5_EEEclEv
DA:86,5
DA:127,5
DA:143,5
DA:146,5
DA:151,5
DA:152,0
DA:153,5
DA:206,5
DA:207,5
DA:211,5
DA:262,5
DA:266,5
end_of_record
SF:/usr/include/c++/11/bits/atomic_base.h
DA:345,1
DA:464,2
DA:488,70
end_of_record
SF:/usr/include/c++/11/bits/std_function.h
FN:241,_ZNSt14_Function_baseD2Ev
FNDA:17,_ZNSt14_Function_baseD2Ev
FN:386,_ZNSt8functionIFvPvEEC2ERKS2_
FNDA:5,_ZNSt8functionIFvPvEEC2ERKS2_
FN:586,_ZNKSt8functionIFvPvEEclES0_
FNDA:10,_ZNKSt8functionIFvPvEEclES0_
DA:241,17
DA:243,17
DA:244,5
DA:245,17
DA:247,10
DA:386,5
DA:387,5
DA:389,5
DA:391,5
DA:392,5
DA:393,5
DA:395,5
DA:586,10
DA:588,10
DA:589,0
DA:590,10
end_of_record
SF:/usr/include/c++/11/condition_variable
FN:100,_ZNSt18condition_variable4waitIZN3PAO17executeWorkerTaskERNS1_6WorkerEPS2_EUlvE_EEvRSt11unique_lockISt5mutexET_
FNDA:15,_ZNSt18condition_variable4waitIZN3PAO17executeWorkerTaskERNS1_6WorkerEPS2_EUlvE_EEvRSt11unique_lockISt5mutexET_
DA:100,15
DA:102,30
DA:103,15
DA:104,15
end_of_record
SF:/usr/include/c++/11/bits/stl_vector.h
FN:333,_ZNSt12_Vector_baseIN3PAO6WorkerESaIS1_EED2Ev
FNDA:1,_ZNSt12_Vector_baseIN3PAO6WorkerESaIS1_EED2Ev
FN:678,_ZNSt6vectorIN3PAO6WorkerESaIS1_EED2Ev
FNDA:1,_ZNSt6vectorIN3PAO6WorkerESaIS1_EED2Ev
FN:1756,_ZNKSt6vectorIN3PAO6WorkerESaIS1_EE12_M_check_lenEmPKc
FNDA:4,_ZNKSt6vectorIN3PAO6WorkerESaIS1_EE12_M_check_lenEmPKc
DA:97,1
DA:98,1
DA:333,1
DA:335,1
DA:336,1
DA:337,1
DA:346,4
DA:353,5
DA:678,1
DA:680,1
DA:683,1
DA:919,11
DA:1046,11
DA:1204,5
DA:1756,4
DA:1758,4
DA:1759,0
DA:1761,4
DA:1762,4
end_of_record
SF:/usr/include/c++/11/bits/stl_algobase.h
FN:611,_ZSt4copyIPPPvS2_ET0_T_S4_S3_
FNDA:0,_ZSt4copyIPPPvS2_ET0_T_S4_S3_
FN:731,_ZNSt20__copy_move_backwardILb0ELb1ESt26random_access_iterator_tagE13__copy_move_bIPPvEEPT_PKS5_S8_S6_
FNDA:0,_ZNSt20__copy_move_backwardILb0ELb1ESt26random_access_iterator_tagE13__copy_move_bIPPvEEPT_PKS5_S8_S6_
DA:259,21
DA:260,1
DA:429,0
DA:430,0
DA:431,0
DA:432,0
DA:611,0
DA:620,0
DA:731,0
DA:740,0
DA:741,0
DA:742,0
DA:743,0
DA:760,0
DA:859,0
end_of_record
SF:/usr/include/c++/11/bits/deque.tcc
FN:484,_ZNSt5dequeIPvSaIS0_EE16_M_push_back_auxIJRKS0_EEEvDpOT_
FNDA:0,_ZNSt5dequeIPvSaIS0_EE16_M_push_back_auxIJRKS0_EEEvDpOT_
FN:576,_ZNSt5dequeIPvSaIS0_EE16_M_pop_front_auxEv
FNDA:0,_ZNSt5dequeIPvSaIS0_EE16_M_pop_front_auxEv
FN:931,_ZNSt5dequeIPvSaIS0_EE17_M_reallocate_mapEmb
FNDA:0,_ZNSt5dequeIPvSaIS0_EE17_M_reallocate_mapEmb
DA:484,0
DA:492,0
DA:493,0
DA:496,0
DA:497,0
DA:501,0
DA:507,0
DA:509,0
DA:516,0
DA:576,0
DA:581,0
DA:582,0
DA:583,0
DA:584,0
DA:931,0
DA:934,0
DA:935,0
DA:936,0
DA:939,0
DA:941,0
DA:942,0
DA:943,0
DA:944,0
DA:945,0
DA:949,0
DA:955,0
DA:956,0
DA:960,0
DA:961,0
DA:962,0
DA:963,0
DA:965,0
DA:967,0
DA:968,0
DA:972,0
DA:973,0
end_of_record
SF:/usr/include/c++/11/bits/std_mutex.h
FN:98,_ZNSt5mutex4lockEv
FNDA:101,_ZNSt5mutex4lockEv
DA:65,1
DA:98,101
DA:100,101
DA:103,101
DA:104,0
DA:105,101
DA:118,87
DA:229,82
end_of_record
SF:/usr/include/c++/11/ext/new_allocator.h
FN:103,_ZN9__gnu_cxx13new_allocatorIPvE8allocateEmPKv
FNDA:17,_ZN9__gnu_cxx13new_allocatorIPvE8allocateEmPKv
FN:103,_ZN9__gnu_cxx13new_allocatorIN3PAO6WorkerEE8allocateEmPKv
FNDA:4,_ZN9__gnu_cxx13new_allocatorIN3PAO6WorkerEE8allocateEmPKv
FN:103,_ZN9__gnu_cxx13new_allocatorIPPvE8allocateEmPKv
FNDA:17,_ZN9__gnu_cxx13new_allocatorIPPvE8allocateEmPKv
DA:103,17
DA:111,17
DA:115,0
DA:116,0
DA:117,0
DA:127,17
DA:103,4
DA:111,4
DA:115,0
DA:116,0
DA:117,0
DA:127,4
DA:103,17
DA:111,17
DA:115,0
DA:116,0
DA:117,0
DA:127,17
DA:145,38
DA:162,15
DA:168,10
end_of_record
SF:/usr/include/c++/11/bits/vector.tcc
FN:109,_ZNSt6vectorIN3PAO6WorkerESaIS1_EE12emplace_backIJS1_EEERS1_DpOT_
FNDA:5,_ZNSt6vectorIN3PAO6WorkerESaIS1_EE12emplace_backIJS1_EEERS1_DpOT_
FN:426,_ZNSt6vectorIN3PAO6WorkerESaIS1_EE17_M_realloc_insertIJS1_EEEvN9__gnu_cxx17__normal_iteratorIPS1_S3_EEDpOT_
FNDA:4,_ZNSt6vectorIN3PAO6WorkerESaIS1_EE17_M_realloc_insertIJS1_EEEvN9__gnu_cxx17__normal_iteratorIPS1_S3_EEDpOT_
DA:109,5
DA:112,5
DA:117,1
DA:121,4
DA:123,5
DA:426,4
DA:436,4
DA:437,4
DA:438,4
DA:449,4
DA:450,4
DA:477,4
DA:485,0
DA:487,0
DA:493,0
DA:501,4
DA:502,4
DA:503,4
DA:504,4
DA:505,4
end_of_record
SF:/home/aharonba123/Desktop/H.W/Semester_B/Operating_Systems/Final_project/5_pipeline/PAO.hpp
end_of_record
